Archive member included because of file (symbol)

../lib/libmain.a(xtensa_vectors.o)
                              (call_user_start)
../lib/libmain.a(app_main.o)  ../lib/libmain.a(xtensa_vectors.o) (user_fatal_exception_handler)
../lib/libmain.a(ets_timer.o)
                              ../lib/libmain.a(app_main.o) (ets_timer_init)
../lib/libmain.a(misc.o)      ../lib/libmain.a(app_main.o) (os_install_putc1)
../lib/libmain.a(printf-stdarg.o)
                              ../lib/libmain.a(app_main.o) (printf)
../lib/libmain.a(spi_flash.o)
                              ../lib/libmain.a(app_main.o) (flashchip)
../lib/libmain.a(uart.o)      ../lib/libmain.a(app_main.o) (uart_div_modify)
../lib/libmain.a(user_interface.o)
                              ../lib/libmain.a(app_main.o) (rst_if)
../lib/libmain.a(os_cpu_a.o)  ../lib/libmain.a(xtensa_vectors.o) (_xt_int_enter)
../lib/libmain.a(xtensa_context.o)
                              ../lib/libmain.a(os_cpu_a.o) (_xt_context_save)
../lib/libmain.a(timers.o)    ../lib/libmain.a(user_interface.o) (os_timer_setfn)
../lib/libfreertos.a(heap_4.o)
                              ../lib/libmain.a(timers.o) (pvPortMalloc)
../lib/libfreertos.a(port.o)  ../lib/libmain.a(app_main.o) (vPortEnterCritical)
../lib/libfreertos.a(queue.o)
                              ../lib/libmain.a(ets_timer.o) (xQueueGenericCreate)
../lib/libfreertos.a(tasks.o)
                              ../lib/libmain.a(os_cpu_a.o) (pxCurrentTCB)
../lib/libfreertos.a(timers.o)
                              ../lib/libfreertos.a(tasks.o) (xTimerCreateTimerTask)
../lib/libfreertos.a(list.o)  ../lib/libfreertos.a(queue.o) (vListInitialise)
../lib/liblwip.a(dhcp.o)      ../lib/libmain.a(user_interface.o) (dhcp_start)
../lib/liblwip.a(dns.o)       ../lib/liblwip.a(dhcp.o) (dns_setserver)
../lib/liblwip.a(etharp.o)    ../lib/liblwip.a(dhcp.o) (etharp_query)
../lib/liblwip.a(ip4_addr.o)  ../lib/liblwip.a(dhcp.o) (ip_addr_any)
../lib/liblwip.a(ip4.o)       ../lib/liblwip.a(etharp.o) (ip_input)
../lib/liblwip.a(ip_frag.o)   ../lib/liblwip.a(ip4.o) (ip_frag)
../lib/liblwip.a(memp.o)      ../lib/liblwip.a(etharp.o) (memp_sizes)
../lib/liblwip.a(netif.o)     ../lib/liblwip.a(dhcp.o) (netif_list)
../lib/liblwip.a(pbuf.o)      ../lib/liblwip.a(dhcp.o) (pbuf_alloc)
../lib/liblwip.a(raw.o)       ../lib/liblwip.a(ip4.o) (raw_input)
../lib/liblwip.a(stats.o)     ../lib/liblwip.a(etharp.o) (lwip_stats)
../lib/liblwip.a(sys_arch.o)  ../lib/liblwip.a(pbuf.o) (sys_arch_protect)
../lib/liblwip.a(tcp_in.o)    ../lib/liblwip.a(ip4.o) (tcp_input)
../lib/liblwip.a(tcpip.o)     ../lib/liblwip.a(pbuf.o) (tcpip_callback_with_block)
../lib/liblwip.a(tcp.o)       ../lib/liblwip.a(netif.o) (tcp_active_pcbs)
../lib/liblwip.a(tcp_out.o)   ../lib/liblwip.a(tcp.o) (tcp_send_fin)
../lib/liblwip.a(timers.o)    ../lib/liblwip.a(tcpip.o) (sys_timeout)
../lib/liblwip.a(udp.o)       ../lib/liblwip.a(ip4.o) (udp_input)
../lib/liblwip.a(icmp.o)      ../lib/liblwip.a(ip4.o) (icmp_input)
../lib/liblwip.a(inet_chksum.o)
                              ../lib/liblwip.a(tcp_in.o) (inet_chksum_pseudo)
../lib/liblwip.a(init.o)      ../lib/liblwip.a(tcpip.o) (lwip_init)
../lib/liblwip.a(sockets.o)   ../lib/liblwip.a(init.o) (lwip_socket_init)
../lib/liblwip.a(api_lib.o)   ../lib/liblwip.a(sockets.o) (netconn_new_with_proto_and_callback)
../lib/liblwip.a(api_msg.o)   ../lib/liblwip.a(api_lib.o) (netconn_alloc)
../lib/liblwip.a(netbuf.o)    ../lib/liblwip.a(sockets.o) (netbuf_delete)
user/.output/eagle/debug/lib/libuser.a(user_main.o)
                              ../lib/libmain.a(app_main.o) (user_init)
user/.output/eagle/debug/lib/libuser.a(util-logtrace.o)
                              user/.output/eagle/debug/lib/libuser.a(user_main.o) (ws_log_init)
user/.output/eagle/debug/lib/libuser.a(util-terminal.o)
                              user/.output/eagle/debug/lib/libuser.a(util-logtrace.o) (term_func_out)
user/.output/eagle/debug/lib/libuser.a(util-task.o)
                              user/.output/eagle/debug/lib/libuser.a(user_main.o) (util_create_task)
user/.output/eagle/debug/lib/libuser.a(task-af.o)
                              user/.output/eagle/debug/lib/libuser.a(user_main.o) (task_audio_open)
user/.output/eagle/debug/lib/libuser.a(http-protocol.o)
                              user/.output/eagle/debug/lib/libuser.a(task-af.o) (http_request)
user/.output/eagle/debug/lib/libuser.a(af-interface.o)
                              user/.output/eagle/debug/lib/libuser.a(task-af.o) (adif_init)
user/.output/eagle/debug/lib/libuser.a(af-buffer.o)
                              user/.output/eagle/debug/lib/libuser.a(task-af.o) (audio_buffer_init)
user/.output/eagle/debug/lib/libuser.a(tcp-socket.o)
                              user/.output/eagle/debug/lib/libuser.a(http-protocol.o) (ws_socket_conn)
../../codec-mpeg/.output/eagle/debug/lib/libcodec-mpeg.a(codec-mpeg.o)
                              user/.output/eagle/debug/lib/libuser.a(task-af.o) (task_mpeg_decode)
../../codec-mpeg/.output/eagle/debug/lib/libcodec-mpeg.a(frame.o)
                              ../../codec-mpeg/.output/eagle/debug/lib/libcodec-mpeg.a(codec-mpeg.o) (mad_frame_decode)
../../codec-mpeg/.output/eagle/debug/lib/libcodec-mpeg.a(layer3.o)
                              ../../codec-mpeg/.output/eagle/debug/lib/libcodec-mpeg.a(frame.o) (mad_layer_III)
../../codec-mpeg/.output/eagle/debug/lib/libcodec-mpeg.a(stream.o)
                              ../../codec-mpeg/.output/eagle/debug/lib/libcodec-mpeg.a(codec-mpeg.o) (mad_stream_init)
../../codec-mpeg/.output/eagle/debug/lib/libcodec-mpeg.a(synth_stereo.o)
                              ../../codec-mpeg/.output/eagle/debug/lib/libcodec-mpeg.a(codec-mpeg.o) (mad_synth_init)
../../codec-mpeg/.output/eagle/debug/lib/libcodec-mpeg.a(timer.o)
                              ../../codec-mpeg/.output/eagle/debug/lib/libcodec-mpeg.a(frame.o) (mad_timer_set)
../../codec-mpeg/.output/eagle/debug/lib/libcodec-mpeg.a(align.o)
                              ../../codec-mpeg/.output/eagle/debug/lib/libcodec-mpeg.a(layer3.o) (unalChar)
../../codec-mpeg/.output/eagle/debug/lib/libcodec-mpeg.a(bit.o)
                              ../../codec-mpeg/.output/eagle/debug/lib/libcodec-mpeg.a(frame.o) (mad_bit_init)
../../codec-mpeg/.output/eagle/debug/lib/libcodec-mpeg.a(huffman.o)
                              ../../codec-mpeg/.output/eagle/debug/lib/libcodec-mpeg.a(layer3.o) (mad_huff_pair_table)
../../adif-esp-i2s-dsm/.output/eagle/debug/lib/libadif-esp-i2s-dsm.a(adif-esp-i2s-dsm.o)
                              user/.output/eagle/debug/lib/libuser.a(af-interface.o) (adif_esp_i2s_dsm)
driver/.output/eagle/debug/lib/libdriver.a(i2s_freertos.o)
                              ../../adif-esp-i2s-dsm/.output/eagle/debug/lib/libadif-esp-i2s-dsm.a(adif-esp-i2s-dsm.o) (i2sInit)
driver/.output/eagle/debug/lib/libdriver.a(uart.o)
                              user/.output/eagle/debug/lib/libuser.a(user_main.o) (UART_SetBaudrate)
/opt/xtensa-lx106-elf/bin/../lib/gcc/xtensa-lx106-elf/4.8.2/libgcc.a(_divsi3.o)
                              ../lib/liblwip.a(dhcp.o) (__divsi3)
/opt/xtensa-lx106-elf/bin/../lib/gcc/xtensa-lx106-elf/4.8.2/libgcc.a(_modsi3.o)
                              user/.output/eagle/debug/lib/libuser.a(http-protocol.o) (__modsi3)
/opt/xtensa-lx106-elf/bin/../lib/gcc/xtensa-lx106-elf/4.8.2/libgcc.a(_udivsi3.o)
                              ../lib/libmain.a(app_main.o) (__udivsi3)
/opt/xtensa-lx106-elf/bin/../lib/gcc/xtensa-lx106-elf/4.8.2/libgcc.a(_umodsi3.o)
                              ../lib/libmain.a(printf-stdarg.o) (__umodsi3)
/opt/xtensa-lx106-elf/bin/../lib/gcc/xtensa-lx106-elf/4.8.2/libhal.a(clock.o)
                              ../lib/libmain.a(misc.o) (xthal_get_ccount)
/opt/xtensa-lx106-elf/bin/../lib/gcc/xtensa-lx106-elf/4.8.2/libhal.a(int_asm--set_intset.o)
                              ../lib/libfreertos.a(port.o) (xthal_set_intset)
../lib/libphy.a(phy.o)        ../lib/libmain.a(app_main.o) (phy_enable_agc)
../lib/libphy.a(phy_chip_v5_ana_romfunc.o)
                              driver/.output/eagle/debug/lib/libdriver.a(i2s_freertos.o) (rom_i2c_writeReg_Mask)
../lib/libphy.a(phy_chip_v5_romfunc.o)
                              ../lib/libphy.a(phy_chip_v5_ana_romfunc.o) (g_phyFuns)
../lib/libphy.a(phy_chip_v6_ana.o)
                              ../lib/libmain.a(user_interface.o) (test_tout)
../lib/libphy.a(phy_chip_v6.o)
                              ../lib/libphy.a(phy_chip_v6_ana.o) (chip6_sleep_params)
../lib/libphy.a(phy_chip_v6_cal.o)
                              ../lib/libphy.a(phy_chip_v6.o) (loop_pwctrl_pwdet_error_accum_high_power)
../lib/libphy.a(phy_chip_v6_unused.o)
                              ../lib/libphy.a(phy_chip_v6.o) (chip_v6_set_sense)
../lib/libphy.a(phy_sleep.o)  ../lib/libphy.a(phy_chip_v6.o) (pm_set_sleep_cycles)
../lib/libphy.a(phy_chip_v5_cal_romfunc.o)
                              ../lib/libphy.a(phy_chip_v5_romfunc.o) (rom_cal_tos_v50)
../lib/libpp.a(lmac.o)        ../lib/libmain.a(app_main.o) (lmacInit)
../lib/libpp.a(pm.o)          ../lib/libmain.a(os_cpu_a.o) (CCOMPARE_AddVal)
../lib/libpp.a(pp.o)          ../lib/libpp.a(pm.o) (pend_flag_noise_check)
../lib/libpp.a(rate_control.o)
                              ../lib/libpp.a(lmac.o) (RC_SetBasicRate)
../lib/libpp.a(trc.o)         ../lib/libpp.a(lmac.o) (rcUpdateTxDone)
../lib/libpp.a(wdev.o)        ../lib/libpp.a(pp.o) (wDevCtrl)
../lib/libpp.a(esf_buf.o)     ../lib/libpp.a(wdev.o) (esf_rx_buf_alloc)
../lib/libpp.a(if_hwctrl.o)   ../lib/libpp.a(pm.o) (ic_get_addr)
../lib/libnet80211.a(ieee80211.o)
                              ../lib/libmain.a(app_main.o) (g_ic)
../lib/libnet80211.a(ieee80211_crypto.o)
                              ../lib/libnet80211.a(ieee80211.o) (ieee80211_crypto_attach)
../lib/libnet80211.a(ieee80211_ets.o)
                              ../lib/libpp.a(pm.o) (ieee80211_getmgtframe)
../lib/libnet80211.a(ieee80211_hostap.o)
                              ../lib/libpp.a(pp.o) (TmpSTAAPCloseAP)
../lib/libnet80211.a(ieee80211_ht.o)
                              ../lib/libmain.a(user_interface.o) (ieee80211_ht_attach)
../lib/libnet80211.a(ieee80211_input.o)
                              ../lib/libnet80211.a(ieee80211_hostap.o) (ieee80211_decap)
../lib/libnet80211.a(ieee80211_output.o)
                              ../lib/libpp.a(pm.o) (ieee80211_send_setup)
../lib/libnet80211.a(ieee80211_phy.o)
                              ../lib/libnet80211.a(ieee80211.o) (ieee80211_get_ratetable)
../lib/libnet80211.a(ieee80211_power.o)
                              ../lib/libnet80211.a(ieee80211_hostap.o) (ieee80211_psq_init)
../lib/libnet80211.a(ieee80211_proto.o)
                              ../lib/libpp.a(wdev.o) (ieee80211_addr_bcast)
../lib/libnet80211.a(ieee80211_scan.o)
                              ../lib/libmain.a(user_interface.o) (scannum)
../lib/libnet80211.a(ieee80211_sta.o)
                              ../lib/libmain.a(user_interface.o) (ieee80211_sta_new_state)
../lib/libnet80211.a(wl_chm.o)
                              ../lib/libnet80211.a(ieee80211.o) (chm_init)
../lib/libnet80211.a(wl_cnx.o)
                              ../lib/libmain.a(user_interface.o) (sta_con_timer)
../lib/libnet80211.a(ieee80211_action.o)
                              ../lib/libnet80211.a(ieee80211_ht.o) (ieee80211_send_action_register)
../lib/libwpa.a(ap_config.o)  ../lib/libnet80211.a(ieee80211_hostap.o) (hostapd_setup_wpa_psk)
../lib/libwpa.a(common.o)     ../lib/libmain.a(user_interface.o) (hexstr2bin)
../lib/libwpa.a(os_xtensa.o)  ../lib/libwpa.a(common.o) (os_get_time)
../lib/libwpa.a(sha1-pbkdf2.o)
                              ../lib/libmain.a(user_interface.o) (pbkdf2_sha1)
../lib/libwpa.a(wpa_auth.o)   ../lib/libnet80211.a(ieee80211_hostap.o) (wpa_init)
../lib/libwpa.a(wpa_auth_ie.o)
                              ../lib/libwpa.a(wpa_auth.o) (wpa_auth_gen_wpa_ie)
../lib/libwpa.a(wpa.o)        ../lib/libnet80211.a(ieee80211_sta.o) (wpa_sm_rx_eapol)
../lib/libwpa.a(wpa_common.o)
                              ../lib/libwpa.a(wpa_auth_ie.o) (wpa_parse_wpa_ie_rsn)
../lib/libwpa.a(wpa_debug.o)  ../lib/libwpa.a(wpa_auth.o) (eloop_cancel_timeout)
../lib/libwpa.a(wpa_ie.o)     ../lib/libnet80211.a(ieee80211_scan.o) (wpa_parse_wpa_ie)
../lib/libwpa.a(wpa_main.o)   ../lib/libnet80211.a(wl_cnx.o) (ppInstallKey)
../lib/libwpa.a(wpas_glue.o)  ../lib/libwpa.a(wpa.o) (wpa_sm_alloc_eapol)
../lib/libwpa.a(aes-unwrap.o)
                              ../lib/libwpa.a(wpa.o) (aes_unwrap)
../lib/libwpa.a(aes-wrap.o)   ../lib/libwpa.a(wpa_auth.o) (aes_wrap)
../lib/libwpa.a(md5.o)        ../lib/libwpa.a(wpa_common.o) (hmac_md5)
../lib/libwpa.a(md5-internal.o)
                              ../lib/libwpa.a(md5.o) (md5_vector)
../lib/libwpa.a(rc4.o)        ../lib/libwpa.a(wpa_auth.o) (rc4_skip)
../lib/libwpa.a(sha1.o)       ../lib/libwpa.a(sha1-pbkdf2.o) (hmac_sha1_vector)
../lib/libwpa.a(sha1-internal.o)
                              ../lib/libwpa.a(sha1.o) (sha1_vector)
../lib/libwpa.a(aes-internal-dec.o)
                              ../lib/libwpa.a(aes-unwrap.o) (aes_decrypt_init)
../lib/libwpa.a(aes-internal-enc.o)
                              ../lib/libwpa.a(aes-wrap.o) (aes_encrypt_init)
../lib/libwpa.a(aes-internal.o)
                              ../lib/libwpa.a(aes-internal-dec.o) (Te0)
../lib/libmain.a(libc.o)      user/.output/eagle/debug/lib/libuser.a(http-protocol.o) (_ctype_)
../lib/liblwip.a(ethernetif.o)
                              ../lib/libnet80211.a(ieee80211_hostap.o) (ethernetif_input)
../lib/liblwip.a(netdb.o)     user/.output/eagle/debug/lib/libuser.a(tcp-socket.o) (lwip_gethostbyname)
/opt/xtensa-lx106-elf/bin/../lib/gcc/xtensa-lx106-elf/4.8.2/libgcc.a(_ashrdi3.o)
                              ../lib/libphy.a(phy_chip_v6.o) (__ashrdi3)
/opt/xtensa-lx106-elf/bin/../lib/gcc/xtensa-lx106-elf/4.8.2/libgcc.a(_addsubsf3.o)
                              ../lib/libphy.a(phy_chip_v6_ana.o) (__addsf3)
/opt/xtensa-lx106-elf/bin/../lib/gcc/xtensa-lx106-elf/4.8.2/libgcc.a(_mulsf3.o)
                              ../lib/libphy.a(phy_chip_v5_ana_romfunc.o) (__mulsf3)
/opt/xtensa-lx106-elf/bin/../lib/gcc/xtensa-lx106-elf/4.8.2/libgcc.a(_divsf3.o)
                              ../lib/libphy.a(phy_chip_v6_ana.o) (__divsf3)
/opt/xtensa-lx106-elf/bin/../lib/gcc/xtensa-lx106-elf/4.8.2/libgcc.a(_fixsfsi.o)
                              ../lib/libphy.a(phy_chip_v6.o) (__fixsfsi)
/opt/xtensa-lx106-elf/bin/../lib/gcc/xtensa-lx106-elf/4.8.2/libgcc.a(_fixunssfsi.o)
                              ../lib/libphy.a(phy_chip_v5_ana_romfunc.o) (__fixunssfsi)
/opt/xtensa-lx106-elf/bin/../lib/gcc/xtensa-lx106-elf/4.8.2/libgcc.a(_floatsisf.o)
                              ../lib/libphy.a(phy_chip_v6.o) (__floatunsisf)
/opt/xtensa-lx106-elf/bin/../lib/gcc/xtensa-lx106-elf/4.8.2/libgcc.a(_addsubdf3.o)
                              ../lib/libphy.a(phy_chip_v5_ana_romfunc.o) (__adddf3)
/opt/xtensa-lx106-elf/bin/../lib/gcc/xtensa-lx106-elf/4.8.2/libgcc.a(_muldf3.o)
                              ../lib/libphy.a(phy_chip_v5_ana_romfunc.o) (__muldf3)
/opt/xtensa-lx106-elf/bin/../lib/gcc/xtensa-lx106-elf/4.8.2/libgcc.a(_divdf3.o)
                              ../lib/libphy.a(phy_chip_v5_ana_romfunc.o) (__divdf3)
/opt/xtensa-lx106-elf/bin/../lib/gcc/xtensa-lx106-elf/4.8.2/libgcc.a(_fixdfsi.o)
                              ../lib/libphy.a(phy_chip_v5_ana_romfunc.o) (__fixdfsi)
/opt/xtensa-lx106-elf/bin/../lib/gcc/xtensa-lx106-elf/4.8.2/libgcc.a(_floatsidf.o)
                              ../lib/libphy.a(phy_chip_v5_ana_romfunc.o) (__floatunsidf)
/opt/xtensa-lx106-elf/bin/../lib/gcc/xtensa-lx106-elf/4.8.2/libgcc.a(_truncdfsf2.o)
                              ../lib/libphy.a(phy_chip_v5_ana_romfunc.o) (__truncdfsf2)
/opt/xtensa-lx106-elf/bin/../lib/gcc/xtensa-lx106-elf/4.8.2/libgcc.a(_extendsfdf2.o)
                              ../lib/libphy.a(phy_chip_v5_ana_romfunc.o) (__extendsfdf2)
/opt/xtensa-lx106-elf/bin/../lib/gcc/xtensa-lx106-elf/4.8.2/libgcc.a(_muldi3.o)
                              ../lib/libphy.a(phy_chip_v6.o) (__muldi3)
/opt/xtensa-lx106-elf/bin/../lib/gcc/xtensa-lx106-elf/4.8.2/libgcc.a(_popcountsi2.o)
                              ../lib/libpp.a(trc.o) (__popcountsi2)
/opt/xtensa-lx106-elf/bin/../lib/gcc/xtensa-lx106-elf/4.8.2/libgcc.a(_divdi3.o)
                              ../lib/libphy.a(phy_chip_v5_romfunc.o) (__divdi3)
/opt/xtensa-lx106-elf/bin/../lib/gcc/xtensa-lx106-elf/4.8.2/libgcc.a(_umoddi3.o)
                              ../lib/libpp.a(pm.o) (__umoddi3)
/opt/xtensa-lx106-elf/bin/../lib/gcc/xtensa-lx106-elf/4.8.2/libgcc.a(_umulsidi3.o)
                              /opt/xtensa-lx106-elf/bin/../lib/gcc/xtensa-lx106-elf/4.8.2/libgcc.a(_muldi3.o) (__umulsidi3)
/opt/xtensa-lx106-elf/bin/../lib/gcc/xtensa-lx106-elf/4.8.2/libgcc.a(_popcount_tab.o)
                              /opt/xtensa-lx106-elf/bin/../lib/gcc/xtensa-lx106-elf/4.8.2/libgcc.a(_popcountsi2.o) (__popcount_tab)
../lib/libnet80211.a(ieee80211_crypto_ccmp.o)
                              ../lib/libwpa.a(wpa_auth.o) (ccmp)
../lib/libnet80211.a(ieee80211_crypto_tkip.o)
                              ../lib/libwpa.a(wpa_auth.o) (tkip)
../lib/libnet80211.a(ieee80211_crypto_wep.o)
                              ../lib/libwpa.a(wpa_auth.o) (wep)

Allocating common symbols
Common symbol       size              file

term_func_out       0x4               user/.output/eagle/debug/lib/libuser.a(util-terminal.o)
MainData            0xa07             ../../codec-mpeg/.output/eagle/debug/lib/libcodec-mpeg.a(stream.o)
xUartTaskHandle     0x4               driver/.output/eagle/debug/lib/libdriver.a(uart.o)
audio_running       0x1               user/.output/eagle/debug/lib/libuser.a(task-af.o)
audio_status        0x4               user/.output/eagle/debug/lib/libuser.a(task-af.o)
adif_instance       0x4               user/.output/eagle/debug/lib/libuser.a(task-af.o)
xQueueUart          0x4               driver/.output/eagle/debug/lib/libdriver.a(uart.o)
term_func_in        0x4               user/.output/eagle/debug/lib/libuser.a(util-terminal.o)

Memory Configuration

Name             Origin             Length             Attributes
dport0_0_seg     0x3ff00000         0x00000010
dram0_0_seg      0x3ffe8000         0x00014000
iram1_0_seg      0x40100000         0x00008000
irom0_0_seg      0x40201010         0x0006b000
*default*        0x00000000         0xffffffff

Linker script and memory map

START GROUP
LOAD /opt/xtensa-lx106-elf/bin/../lib/gcc/xtensa-lx106-elf/4.8.2/libgcc.a
LOAD /opt/xtensa-lx106-elf/bin/../lib/gcc/xtensa-lx106-elf/4.8.2/libhal.a
LOAD ../lib/libphy.a
LOAD ../lib/libpp.a
LOAD ../lib/libnet80211.a
LOAD ../lib/libwpa.a
LOAD ../lib/libmain.a
LOAD ../lib/libfreertos.a
LOAD ../lib/liblwip.a
LOAD ../lib/libudhcp.a
LOAD user/.output/eagle/debug/lib/libuser.a
LOAD ../../codec-mpeg/.output/eagle/debug/lib/libcodec-mpeg.a
LOAD ../../adif-esp-i2s-dsm/.output/eagle/debug/lib/libadif-esp-i2s-dsm.a
LOAD driver/.output/eagle/debug/lib/libdriver.a
END GROUP
                0x40000000                PROVIDE (_memmap_vecbase_reset, 0x40000000)
                0x00000110                _memmap_cacheattr_wb_base = 0x110
                0x00000110                _memmap_cacheattr_wt_base = 0x110
                0x00000220                _memmap_cacheattr_bp_base = 0x220
                0xfffff00f                _memmap_cacheattr_unused_mask = 0xfffff00f
                0x2222211f                _memmap_cacheattr_wb_trapnull = 0x2222211f
                0x2222211f                _memmap_cacheattr_wba_trapnull = 0x2222211f
                0x2222211f                _memmap_cacheattr_wbna_trapnull = 0x2222211f
                0x2222211f                _memmap_cacheattr_wt_trapnull = 0x2222211f
                0x2222222f                _memmap_cacheattr_bp_trapnull = 0x2222222f
                0xfffff11f                _memmap_cacheattr_wb_strict = 0xfffff11f
                0xfffff11f                _memmap_cacheattr_wt_strict = 0xfffff11f
                0xfffff22f                _memmap_cacheattr_bp_strict = 0xfffff22f
                0x22222112                _memmap_cacheattr_wb_allvalid = 0x22222112
                0x22222112                _memmap_cacheattr_wt_allvalid = 0x22222112
                0x22222222                _memmap_cacheattr_bp_allvalid = 0x22222222
                0x2222211f                PROVIDE (_memmap_cacheattr_reset, _memmap_cacheattr_wb_trapnull)

.dport0.rodata  0x3ff00000        0x0
                0x3ff00000                _dport0_rodata_start = ABSOLUTE (.)
 *(.dport0.rodata)
 *(.dport.rodata)
                0x3ff00000                _dport0_rodata_end = ABSOLUTE (.)

.dport0.literal
                0x3ff00000        0x0
                0x3ff00000                _dport0_literal_start = ABSOLUTE (.)
 *(.dport0.literal)
 *(.dport.literal)
                0x3ff00000                _dport0_literal_end = ABSOLUTE (.)

.dport0.data    0x3ff00000        0x0
                0x3ff00000                _dport0_data_start = ABSOLUTE (.)
 *(.dport0.data)
 *(.dport.data)
                0x3ff00000                _dport0_data_end = ABSOLUTE (.)

.data           0x3ffe8000      0x698
                0x3ffe8000                _data_start = ABSOLUTE (.)
 *(.data)
 .data          0x3ffe8000        0x4 ../lib/libmain.a(xtensa_vectors.o)
                0x3ffe8000                _Pri_3_HandlerAddress
 .data          0x3ffe8004        0x0 ../lib/libmain.a(app_main.o)
 .data          0x3ffe8004        0x0 ../lib/libmain.a(ets_timer.o)
 .data          0x3ffe8004        0x4 ../lib/libmain.a(misc.o)
 .data          0x3ffe8008        0x0 ../lib/libmain.a(printf-stdarg.o)
 .data          0x3ffe8008       0x18 ../lib/libmain.a(spi_flash.o)
                0x3ffe8008                flashchip
 .data          0x3ffe8020        0x0 ../lib/libmain.a(uart.o)
 .data          0x3ffe8020        0x1 ../lib/libmain.a(user_interface.o)
                0x3ffe8020                dhcpc_flag
 .data          0x3ffe8021        0x0 ../lib/libmain.a(os_cpu_a.o)
 .data          0x3ffe8021        0x0 ../lib/libmain.a(xtensa_context.o)
 .data          0x3ffe8021        0x0 ../lib/libmain.a(timers.o)
 .data          0x3ffe8021        0x0 ../lib/libfreertos.a(heap_4.o)
 .data          0x3ffe8021        0x0 ../lib/libfreertos.a(port.o)
 .data          0x3ffe8021        0x0 ../lib/libfreertos.a(queue.o)
 *fill*         0x3ffe8021        0x3 
 .data          0x3ffe8024        0x4 ../lib/libfreertos.a(tasks.o)
 .data          0x3ffe8028        0x0 ../lib/libfreertos.a(timers.o)
 .data          0x3ffe8028        0x0 ../lib/libfreertos.a(list.o)
 .data          0x3ffe8028        0x4 ../lib/liblwip.a(dhcp.o)
 .data          0x3ffe802c        0x0 ../lib/liblwip.a(dns.o)
 .data          0x3ffe802c        0x0 ../lib/liblwip.a(etharp.o)
 .data          0x3ffe802c        0x0 ../lib/liblwip.a(ip4_addr.o)
 .data          0x3ffe802c        0x0 ../lib/liblwip.a(ip4.o)
 .data          0x3ffe802c        0x0 ../lib/liblwip.a(ip_frag.o)
 .data          0x3ffe802c        0x0 ../lib/liblwip.a(memp.o)
 .data          0x3ffe802c        0x0 ../lib/liblwip.a(netif.o)
 .data          0x3ffe802c        0x0 ../lib/liblwip.a(pbuf.o)
 .data          0x3ffe802c        0x0 ../lib/liblwip.a(raw.o)
 .data          0x3ffe802c        0x0 ../lib/liblwip.a(stats.o)
 .data          0x3ffe802c        0x0 ../lib/liblwip.a(sys_arch.o)
 .data          0x3ffe802c        0x0 ../lib/liblwip.a(tcp_in.o)
 .data          0x3ffe802c        0x0 ../lib/liblwip.a(tcpip.o)
 .data          0x3ffe802c        0x8 ../lib/liblwip.a(tcp.o)
 .data          0x3ffe8034        0x0 ../lib/liblwip.a(tcp_out.o)
 .data          0x3ffe8034        0x0 ../lib/liblwip.a(timers.o)
 .data          0x3ffe8034        0x2 ../lib/liblwip.a(udp.o)
 .data          0x3ffe8036        0x0 ../lib/liblwip.a(icmp.o)
 .data          0x3ffe8036        0x0 ../lib/liblwip.a(inet_chksum.o)
 .data          0x3ffe8036        0x0 ../lib/liblwip.a(init.o)
 .data          0x3ffe8036        0x0 ../lib/liblwip.a(sockets.o)
 .data          0x3ffe8036        0x0 ../lib/liblwip.a(api_lib.o)
 .data          0x3ffe8036        0x0 ../lib/liblwip.a(api_msg.o)
 .data          0x3ffe8036        0x0 ../lib/liblwip.a(netbuf.o)
 .data          0x3ffe8036        0x0 user/.output/eagle/debug/lib/libuser.a(user_main.o)
 *fill*         0x3ffe8036        0x2 
 .data          0x3ffe8038        0x4 user/.output/eagle/debug/lib/libuser.a(util-logtrace.o)
 .data          0x3ffe803c        0x0 user/.output/eagle/debug/lib/libuser.a(util-terminal.o)
 .data          0x3ffe803c        0x0 user/.output/eagle/debug/lib/libuser.a(util-task.o)
 .data          0x3ffe803c        0x0 user/.output/eagle/debug/lib/libuser.a(task-af.o)
 .data          0x3ffe803c        0x0 user/.output/eagle/debug/lib/libuser.a(http-protocol.o)
 .data          0x3ffe803c        0x0 user/.output/eagle/debug/lib/libuser.a(af-interface.o)
 .data          0x3ffe803c        0x0 user/.output/eagle/debug/lib/libuser.a(af-buffer.o)
 .data          0x3ffe803c        0x0 user/.output/eagle/debug/lib/libuser.a(tcp-socket.o)
 .data          0x3ffe803c        0x8 ../../codec-mpeg/.output/eagle/debug/lib/libcodec-mpeg.a(codec-mpeg.o)
 .data          0x3ffe8044        0x0 ../../codec-mpeg/.output/eagle/debug/lib/libcodec-mpeg.a(frame.o)
 .data          0x3ffe8044        0x0 ../../codec-mpeg/.output/eagle/debug/lib/libcodec-mpeg.a(layer3.o)
 .data          0x3ffe8044        0x0 ../../codec-mpeg/.output/eagle/debug/lib/libcodec-mpeg.a(stream.o)
 .data          0x3ffe8044        0x0 ../../codec-mpeg/.output/eagle/debug/lib/libcodec-mpeg.a(synth_stereo.o)
 .data          0x3ffe8044        0x0 ../../codec-mpeg/.output/eagle/debug/lib/libcodec-mpeg.a(timer.o)
 .data          0x3ffe8044        0x0 ../../codec-mpeg/.output/eagle/debug/lib/libcodec-mpeg.a(align.o)
 .data          0x3ffe8044        0x0 ../../codec-mpeg/.output/eagle/debug/lib/libcodec-mpeg.a(bit.o)
 .data          0x3ffe8044        0x0 ../../codec-mpeg/.output/eagle/debug/lib/libcodec-mpeg.a(huffman.o)
 .data          0x3ffe8044       0x14 ../../adif-esp-i2s-dsm/.output/eagle/debug/lib/libadif-esp-i2s-dsm.a(adif-esp-i2s-dsm.o)
                0x3ffe8044                adif_esp_i2s_dsm
 .data          0x3ffe8058        0x0 driver/.output/eagle/debug/lib/libdriver.a(i2s_freertos.o)
 .data          0x3ffe8058        0x0 driver/.output/eagle/debug/lib/libdriver.a(uart.o)
 .data          0x3ffe8058        0x0 /opt/xtensa-lx106-elf/bin/../lib/gcc/xtensa-lx106-elf/4.8.2/libgcc.a(_divsi3.o)
 .data          0x3ffe8058        0x0 /opt/xtensa-lx106-elf/bin/../lib/gcc/xtensa-lx106-elf/4.8.2/libgcc.a(_modsi3.o)
 .data          0x3ffe8058        0x0 /opt/xtensa-lx106-elf/bin/../lib/gcc/xtensa-lx106-elf/4.8.2/libgcc.a(_udivsi3.o)
 .data          0x3ffe8058        0x0 /opt/xtensa-lx106-elf/bin/../lib/gcc/xtensa-lx106-elf/4.8.2/libgcc.a(_umodsi3.o)
 .data          0x3ffe8058        0x0 /opt/xtensa-lx106-elf/bin/../lib/gcc/xtensa-lx106-elf/4.8.2/libhal.a(clock.o)
 .data          0x3ffe8058        0x0 /opt/xtensa-lx106-elf/bin/../lib/gcc/xtensa-lx106-elf/4.8.2/libhal.a(int_asm--set_intset.o)
 .data          0x3ffe8058        0x0 ../lib/libphy.a(phy.o)
 .data          0x3ffe8058        0x0 ../lib/libphy.a(phy_chip_v5_ana_romfunc.o)
 .data          0x3ffe8058      0x11c ../lib/libphy.a(phy_chip_v5_romfunc.o)
                0x3ffe8058                g_phyFuns
                0x3ffe805c                g_phyFuns_instance
 .data          0x3ffe8174        0x0 ../lib/libphy.a(phy_chip_v6_ana.o)
 *fill*         0x3ffe8174        0xc 
 .data          0x3ffe8180       0x53 ../lib/libphy.a(phy_chip_v6.o)
                0x3ffe8182                tx_rf_ana_gain
                0x3ffe81a4                tx_pwctrl_atten_init_en
                0x3ffe81b0                rx_gain_swp
                0x3ffe81d0                test_rffreq_txcap
 .data          0x3ffe81d3        0x0 ../lib/libphy.a(phy_chip_v6_cal.o)
 .data          0x3ffe81d3        0x0 ../lib/libphy.a(phy_chip_v6_unused.o)
 *fill*         0x3ffe81d3        0x1 
 .data          0x3ffe81d4        0x4 ../lib/libphy.a(phy_sleep.o)
                0x3ffe81d4                chip_version
 .data          0x3ffe81d8        0x7 ../lib/libphy.a(phy_chip_v5_cal_romfunc.o)
 .data          0x3ffe81df        0x0 ../lib/libpp.a(lmac.o)
 *fill*         0x3ffe81df        0x1 
 .data          0x3ffe81e0        0x1 ../lib/libpp.a(pm.o)
 *fill*         0x3ffe81e1        0x3 
 .data          0x3ffe81e4       0x14 ../lib/libpp.a(pp.o)
                0x3ffe81e4                soft_wdt_interval
                0x3ffe81e8                NoiseTimerInterval
                0x3ffe81f0                sleep_start_wait_time
 *fill*         0x3ffe81f8        0x8 
 .data          0x3ffe8200       0x40 ../lib/libpp.a(rate_control.o)
 .data          0x3ffe8240      0x22c ../lib/libpp.a(trc.o)
 *fill*         0x3ffe846c        0x4 
 .data          0x3ffe8470       0x10 ../lib/libpp.a(wdev.o)
 .data          0x3ffe8480        0x0 ../lib/libpp.a(esf_buf.o)
 .data          0x3ffe8480        0x0 ../lib/libpp.a(if_hwctrl.o)
 .data          0x3ffe8480        0x0 ../lib/libnet80211.a(ieee80211.o)
 .data          0x3ffe8480        0x0 ../lib/libnet80211.a(ieee80211_crypto.o)
 .data          0x3ffe8480        0x0 ../lib/libnet80211.a(ieee80211_ets.o)
 .data          0x3ffe8480        0x0 ../lib/libnet80211.a(ieee80211_hostap.o)
 .data          0x3ffe8480        0x0 ../lib/libnet80211.a(ieee80211_ht.o)
 .data          0x3ffe8480        0x0 ../lib/libnet80211.a(ieee80211_input.o)
 .data          0x3ffe8480        0x0 ../lib/libnet80211.a(ieee80211_output.o)
 .data          0x3ffe8480      0x1a8 ../lib/libnet80211.a(ieee80211_phy.o)
 .data          0x3ffe8628        0x0 ../lib/libnet80211.a(ieee80211_power.o)
 .data          0x3ffe8628        0x6 ../lib/libnet80211.a(ieee80211_proto.o)
                0x3ffe8628                ieee80211_addr_bcast
 .data          0x3ffe862e        0x0 ../lib/libnet80211.a(ieee80211_scan.o)
 .data          0x3ffe862e        0x0 ../lib/libnet80211.a(ieee80211_sta.o)
 .data          0x3ffe862e        0x0 ../lib/libnet80211.a(wl_chm.o)
 .data          0x3ffe862e        0x0 ../lib/libnet80211.a(wl_cnx.o)
 *fill*         0x3ffe862e        0x2 
 .data          0x3ffe8630       0x1c ../lib/libnet80211.a(ieee80211_action.o)
 .data          0x3ffe864c        0x0 ../lib/libwpa.a(ap_config.o)
 .data          0x3ffe864c        0x0 ../lib/libwpa.a(common.o)
 .data          0x3ffe864c        0x0 ../lib/libwpa.a(os_xtensa.o)
 .data          0x3ffe864c        0x0 ../lib/libwpa.a(sha1-pbkdf2.o)
 .data          0x3ffe864c        0x0 ../lib/libwpa.a(wpa_auth.o)
 .data          0x3ffe864c        0x0 ../lib/libwpa.a(wpa_auth_ie.o)
 .data          0x3ffe864c        0x0 ../lib/libwpa.a(wpa.o)
 .data          0x3ffe864c        0x0 ../lib/libwpa.a(wpa_common.o)
 .data          0x3ffe864c        0x0 ../lib/libwpa.a(wpa_debug.o)
 .data          0x3ffe864c        0x0 ../lib/libwpa.a(wpa_ie.o)
 .data          0x3ffe864c        0x0 ../lib/libwpa.a(wpa_main.o)
 .data          0x3ffe864c        0x0 ../lib/libwpa.a(wpas_glue.o)
 .data          0x3ffe864c        0x0 ../lib/libwpa.a(aes-unwrap.o)
 .data          0x3ffe864c        0x0 ../lib/libwpa.a(aes-wrap.o)
 .data          0x3ffe864c        0x0 ../lib/libwpa.a(md5.o)
 .data          0x3ffe864c        0x0 ../lib/libwpa.a(md5-internal.o)
 .data          0x3ffe864c        0x0 ../lib/libwpa.a(rc4.o)
 .data          0x3ffe864c        0x0 ../lib/libwpa.a(sha1.o)
 .data          0x3ffe864c        0x0 ../lib/libwpa.a(sha1-internal.o)
 .data          0x3ffe864c        0x0 ../lib/libwpa.a(aes-internal-dec.o)
 .data          0x3ffe864c        0x0 ../lib/libwpa.a(aes-internal-enc.o)
 .data          0x3ffe864c        0x0 ../lib/libwpa.a(aes-internal.o)
 .data          0x3ffe864c        0x4 ../lib/libmain.a(libc.o)
 .data          0x3ffe8650        0x0 ../lib/liblwip.a(ethernetif.o)
 .data          0x3ffe8650        0x0 ../lib/liblwip.a(netdb.o)
 .data          0x3ffe8650        0x0 /opt/xtensa-lx106-elf/bin/../lib/gcc/xtensa-lx106-elf/4.8.2/libgcc.a(_ashrdi3.o)
 .data          0x3ffe8650        0x0 /opt/xtensa-lx106-elf/bin/../lib/gcc/xtensa-lx106-elf/4.8.2/libgcc.a(_addsubsf3.o)
 .data          0x3ffe8650        0x0 /opt/xtensa-lx106-elf/bin/../lib/gcc/xtensa-lx106-elf/4.8.2/libgcc.a(_mulsf3.o)
 .data          0x3ffe8650        0x0 /opt/xtensa-lx106-elf/bin/../lib/gcc/xtensa-lx106-elf/4.8.2/libgcc.a(_divsf3.o)
 .data          0x3ffe8650        0x0 /opt/xtensa-lx106-elf/bin/../lib/gcc/xtensa-lx106-elf/4.8.2/libgcc.a(_fixsfsi.o)
 .data          0x3ffe8650        0x0 /opt/xtensa-lx106-elf/bin/../lib/gcc/xtensa-lx106-elf/4.8.2/libgcc.a(_fixunssfsi.o)
 .data          0x3ffe8650        0x0 /opt/xtensa-lx106-elf/bin/../lib/gcc/xtensa-lx106-elf/4.8.2/libgcc.a(_floatsisf.o)
 .data          0x3ffe8650        0x0 /opt/xtensa-lx106-elf/bin/../lib/gcc/xtensa-lx106-elf/4.8.2/libgcc.a(_addsubdf3.o)
 .data          0x3ffe8650        0x0 /opt/xtensa-lx106-elf/bin/../lib/gcc/xtensa-lx106-elf/4.8.2/libgcc.a(_muldf3.o)
 .data          0x3ffe8650        0x0 /opt/xtensa-lx106-elf/bin/../lib/gcc/xtensa-lx106-elf/4.8.2/libgcc.a(_divdf3.o)
 .data          0x3ffe8650        0x0 /opt/xtensa-lx106-elf/bin/../lib/gcc/xtensa-lx106-elf/4.8.2/libgcc.a(_fixdfsi.o)
 .data          0x3ffe8650        0x0 /opt/xtensa-lx106-elf/bin/../lib/gcc/xtensa-lx106-elf/4.8.2/libgcc.a(_floatsidf.o)
 .data          0x3ffe8650        0x0 /opt/xtensa-lx106-elf/bin/../lib/gcc/xtensa-lx106-elf/4.8.2/libgcc.a(_truncdfsf2.o)
 .data          0x3ffe8650        0x0 /opt/xtensa-lx106-elf/bin/../lib/gcc/xtensa-lx106-elf/4.8.2/libgcc.a(_extendsfdf2.o)
 .data          0x3ffe8650        0x0 /opt/xtensa-lx106-elf/bin/../lib/gcc/xtensa-lx106-elf/4.8.2/libgcc.a(_muldi3.o)
 .data          0x3ffe8650        0x0 /opt/xtensa-lx106-elf/bin/../lib/gcc/xtensa-lx106-elf/4.8.2/libgcc.a(_popcountsi2.o)
 .data          0x3ffe8650        0x0 /opt/xtensa-lx106-elf/bin/../lib/gcc/xtensa-lx106-elf/4.8.2/libgcc.a(_divdi3.o)
 .data          0x3ffe8650        0x0 /opt/xtensa-lx106-elf/bin/../lib/gcc/xtensa-lx106-elf/4.8.2/libgcc.a(_umoddi3.o)
 .data          0x3ffe8650        0x0 /opt/xtensa-lx106-elf/bin/../lib/gcc/xtensa-lx106-elf/4.8.2/libgcc.a(_umulsidi3.o)
 .data          0x3ffe8650        0x0 /opt/xtensa-lx106-elf/bin/../lib/gcc/xtensa-lx106-elf/4.8.2/libgcc.a(_popcount_tab.o)
 .data          0x3ffe8650       0x18 ../lib/libnet80211.a(ieee80211_crypto_ccmp.o)
                0x3ffe8650                ccmp
 .data          0x3ffe8668       0x18 ../lib/libnet80211.a(ieee80211_crypto_tkip.o)
                0x3ffe8668                tkip
 .data          0x3ffe8680       0x18 ../lib/libnet80211.a(ieee80211_crypto_wep.o)
                0x3ffe8680                wep
 *(.data.*)
 *(.gnu.linkonce.d.*)
 *(.data1)
 *(.sdata)
 *(.sdata.*)
 *(.gnu.linkonce.s.*)
 *(.sdata2)
 *(.sdata2.*)
 *(.gnu.linkonce.s2.*)
 *(.jcr)
                0x3ffe8698                _data_end = ABSOLUTE (.)

.rodata         0x3ffe86a0     0x1ab4
                0x3ffe86a0                _rodata_start = ABSOLUTE (.)
 *(.rodata)
 .rodata        0x3ffe86a0       0x3b ../lib/libmain.a(xtensa_vectors.o)
 *fill*         0x3ffe86db        0x1 
 .rodata        0x3ffe86dc        0x2 ../lib/libfreertos.a(heap_4.o)
 *fill*         0x3ffe86de        0x2 
 .rodata        0x3ffe86e0       0x14 ../lib/libfreertos.a(tasks.o)
 .rodata        0x3ffe86f4        0xc ../lib/liblwip.a(etharp.o)
                0x3ffe86f4                ethbroadcast
                0x3ffe86fa                ethzero
 .rodata        0x3ffe8700        0x8 ../lib/liblwip.a(ip4_addr.o)
                0x3ffe8700                ip_addr_any
                0x3ffe8704                ip_addr_broadcast
 *fill*         0x3ffe8708        0x8 
 .rodata        0x3ffe8710       0x1c ../lib/liblwip.a(memp.o)
                0x3ffe8710                memp_sizes
 *fill*         0x3ffe872c        0x4 
 .rodata        0x3ffe8730       0x5c ../lib/liblwip.a(tcp.o)
                0x3ffe8730                tcp_pcb_lists
                0x3ffe8740                tcp_persist_backoff
                0x3ffe8750                tcp_backoff
                0x3ffe8760                tcp_state_str
 *fill*         0x3ffe878c        0x4 
 .rodata        0x3ffe8790       0x40 ../lib/liblwip.a(sockets.o)
 .rodata        0x3ffe87d0        0x3 user/.output/eagle/debug/lib/libuser.a(util-task.o)
 *fill*         0x3ffe87d3        0x1 
 .rodata        0x3ffe87d4        0xc user/.output/eagle/debug/lib/libuser.a(task-af.o)
 .rodata        0x3ffe87e0      0x2e8 ../../codec-mpeg/.output/eagle/debug/lib/libcodec-mpeg.a(layer3.o)
 .rodata        0x3ffe8ac8        0x8 ../../codec-mpeg/.output/eagle/debug/lib/libcodec-mpeg.a(timer.o)
                0x3ffe8ac8                mad_timer_zero
 .rodata        0x3ffe8ad0        0x8 ../../codec-mpeg/.output/eagle/debug/lib/libcodec-mpeg.a(huffman.o)
                0x3ffe8ad0                mad_huff_quad_table
 .rodata        0x3ffe8ad8        0xc ../lib/libphy.a(phy_chip_v5_ana_romfunc.o)
 *fill*         0x3ffe8ae4        0xc 
 .rodata        0x3ffe8af0       0x10 ../lib/libphy.a(phy_chip_v5_romfunc.o)
 .rodata        0x3ffe8b00        0x8 ../lib/libphy.a(phy_chip_v6_ana.o)
 .rodata        0x3ffe8b08        0x8 ../lib/libphy.a(phy_chip_v6.o)
 .rodata        0x3ffe8b10        0x8 ../lib/libnet80211.a(ieee80211.o)
                0x3ffe8b10                ieee80211_opcap
 .rodata        0x3ffe8b18        0x4 ../lib/libnet80211.a(ieee80211_hostap.o)
 .rodata        0x3ffe8b1c        0x4 ../lib/libnet80211.a(ieee80211_output.o)
 .rodata        0x3ffe8b20       0x70 ../lib/libnet80211.a(ieee80211_proto.o)
 .rodata        0x3ffe8b90        0x8 ../lib/libnet80211.a(wl_cnx.o)
 .rodata        0x3ffe8b98        0x6 ../lib/libwpa.a(ap_config.o)
 *fill*         0x3ffe8b9e        0x2 
 .rodata        0x3ffe8ba0       0x14 ../lib/libwpa.a(wpa_auth.o)
 *fill*         0x3ffe8bb4        0x4 
 .rodata        0x3ffe8bb8        0x8 ../lib/libwpa.a(wpa.o)
 .rodata        0x3ffe8bc0        0xc ../lib/libwpa.a(wpa_common.o)
 .rodata        0x3ffe8bcc        0x2 ../lib/libwpa.a(sha1-internal.o)
 *fill*         0x3ffe8bce        0x2 
 .rodata        0x3ffe8bd0        0xa ../lib/libwpa.a(aes-internal.o)
                0x3ffe8bd0                rcons
 *fill*         0x3ffe8bda        0x6 
 .rodata        0x3ffe8be0      0x101 ../lib/libmain.a(libc.o)
                0x3ffe8be0                _ctype_
 *fill*         0x3ffe8ce1        0x3 
 .rodata        0x3ffe8ce4      0x100 /opt/xtensa-lx106-elf/bin/../lib/gcc/xtensa-lx106-elf/4.8.2/libgcc.a(_popcount_tab.o)
                0x3ffe8ce4                __popcount_tab
 *(.rodata.*)
 .rodata.str1.4
                0x3ffe8de4      0x159 ../lib/libmain.a(app_main.o)
                                0x15d (size before relaxing)
 *fill*         0x3ffe8f3d        0x3 
 .rodata.str1.4
                0x3ffe8f40       0x77 ../lib/libmain.a(ets_timer.o)
 *fill*         0x3ffe8fb7        0x1 
 .rodata.str1.4
                0x3ffe8fb8        0x7 ../lib/libmain.a(printf-stdarg.o)
                                  0xc (size before relaxing)
 *fill*         0x3ffe8fbf        0x1 
 .rodata.str1.4
                0x3ffe8fc0      0x197 ../lib/libmain.a(user_interface.o)
                                0x1a2 (size before relaxing)
 *fill*         0x3ffe9157        0x1 
 .rodata.str1.4
                0x3ffe9158       0x3f ../lib/libmain.a(timers.o)
 *fill*         0x3ffe9197        0x1 
 .rodata.str1.4
                0x3ffe9198       0x20 ../lib/libfreertos.a(port.o)
 .rodata.str1.4
                0x3ffe91b8       0x2e ../lib/libfreertos.a(tasks.o)
 *fill*         0x3ffe91e6        0x2 
 .rodata.str1.4
                0x3ffe91e8       0x2d ../lib/libfreertos.a(timers.o)
 *fill*         0x3ffe9215        0x3 
 .rodata.str1.4
                0x3ffe9218        0xf ../lib/liblwip.a(dns.o)
 *fill*         0x3ffe9227        0x1 
 .rodata.str1.4
                0x3ffe9228       0x16 ../lib/liblwip.a(sys_arch.o)
 *fill*         0x3ffe923e        0x2 
 .rodata.str1.4
                0x3ffe9240       0x53 ../lib/liblwip.a(tcpip.o)
 *fill*         0x3ffe9293        0x1 
 .rodata.str1.4
                0x3ffe9294       0x76 ../lib/liblwip.a(tcp.o)
 *fill*         0x3ffe930a        0x2 
 .rodata.str1.4
                0x3ffe930c       0x49 user/.output/eagle/debug/lib/libuser.a(user_main.o)
 *fill*         0x3ffe9355        0x3 
 .rodata.str1.4
                0x3ffe9358        0xc user/.output/eagle/debug/lib/libuser.a(util-logtrace.o)
 .rodata.str1.4
                0x3ffe9364       0x1f user/.output/eagle/debug/lib/libuser.a(util-terminal.o)
 *fill*         0x3ffe9383        0x1 
 .rodata.str1.4
                0x3ffe9384       0xb9 user/.output/eagle/debug/lib/libuser.a(task-af.o)
 *fill*         0x3ffe943d        0x3 
 .rodata.str1.4
                0x3ffe9440      0x13c user/.output/eagle/debug/lib/libuser.a(http-protocol.o)
 .rodata.str1.4
                0x3ffe957c       0x7b user/.output/eagle/debug/lib/libuser.a(tcp-socket.o)
 *fill*         0x3ffe95f7        0x1 
 .rodata.str1.4
                0x3ffe95f8       0x51 ../../codec-mpeg/.output/eagle/debug/lib/libcodec-mpeg.a(codec-mpeg.o)
 *fill*         0x3ffe9649        0x3 
 .rodata.str1.4
                0x3ffe964c      0x237 ../../codec-mpeg/.output/eagle/debug/lib/libcodec-mpeg.a(stream.o)
 *fill*         0x3ffe9883        0x1 
 .rodata.str1.4
                0x3ffe9884       0x2e driver/.output/eagle/debug/lib/libdriver.a(i2s_freertos.o)
 *fill*         0x3ffe98b2        0x2 
 .rodata.str1.4
                0x3ffe98b4       0x18 driver/.output/eagle/debug/lib/libdriver.a(uart.o)
 .rodata.str1.4
                0x3ffe98cc       0x22 ../lib/libphy.a(phy_chip_v5_romfunc.o)
 *fill*         0x3ffe98ee        0x2 
 .rodata.str1.4
                0x3ffe98f0       0x1f ../lib/libphy.a(phy_chip_v6_ana.o)
                                 0x25 (size before relaxing)
 *fill*         0x3ffe990f        0x1 
 .rodata.str1.4
                0x3ffe9910       0xf4 ../lib/libphy.a(phy_chip_v6.o)
                                 0xf8 (size before relaxing)
 .rodata.str1.4
                0x3ffe9a04      0x168 ../lib/libphy.a(phy_chip_v6_cal.o)
 .rodata.str1.4
                0x3ffe9b6c       0x1d ../lib/libphy.a(phy_chip_v6_unused.o)
 *fill*         0x3ffe9b89        0x3 
 .rodata.str1.4
                0x3ffe9b8c       0xbd ../lib/libphy.a(phy_chip_v5_cal_romfunc.o)
                                 0xe5 (size before relaxing)
 *fill*         0x3ffe9c49        0x3 
 .rodata.str1.4
                0x3ffe9c4c       0x2b ../lib/libpp.a(lmac.o)
                                 0x33 (size before relaxing)
 *fill*         0x3ffe9c77        0x1 
 .rodata.str1.4
                0x3ffe9c78      0x1c3 ../lib/libpp.a(pm.o)
                                0x1df (size before relaxing)
 *fill*         0x3ffe9e3b        0x1 
 .rodata.str1.4
                0x3ffe9e3c       0x70 ../lib/libpp.a(pp.o)
                                 0x7c (size before relaxing)
 .rodata.str1.4
                0x3ffe9eac       0x39 ../lib/libpp.a(trc.o)
 *fill*         0x3ffe9ee5        0x3 
 .rodata.str1.4
                0x3ffe9ee8        0x7 ../lib/libpp.a(wdev.o)
                                  0xf (size before relaxing)
 *fill*         0x3ffe9eef        0x1 
 .rodata.str1.4
                0x3ffe9ef0       0x44 ../lib/libpp.a(if_hwctrl.o)
 .rodata.str1.4
                0x3ffe9f34       0x3f ../lib/libnet80211.a(ieee80211.o)
                                 0x4a (size before relaxing)
 *fill*         0x3ffe9f73        0x1 
 .rodata.str1.4
                0x3ffe9f74       0x19 ../lib/libnet80211.a(ieee80211_ht.o)
 *fill*         0x3ffe9f8d        0x3 
 .rodata.str1.4
                0x3ffe9f90       0x27 ../lib/libnet80211.a(ieee80211_output.o)
                                 0x2f (size before relaxing)
 *fill*         0x3ffe9fb7        0x1 
 .rodata.str1.4
                0x3ffe9fb8       0x24 ../lib/libnet80211.a(ieee80211_scan.o)
 .rodata.str1.4
                0x3ffe9fdc       0x99 ../lib/libnet80211.a(wl_cnx.o)
 *fill*         0x3ffea075        0x3 
 .rodata.str1.4
                0x3ffea078       0x3c ../lib/libwpa.a(wpa_auth.o)
                                 0x43 (size before relaxing)
 .rodata.str1.4
                0x00000000       0x17 ../lib/libwpa.a(wpa.o)
 .rodata.str1.4
                0x3ffea0b4        0x9 ../lib/libwpa.a(wpa_common.o)
 *fill*         0x3ffea0bd        0x3 
 .rodata.str1.4
                0x3ffea0c0       0x36 ../lib/libwpa.a(wpa_main.o)
 *fill*         0x3ffea0f6        0x2 
 .rodata.str1.4
                0x3ffea0f8        0x4 ../lib/libwpa.a(sha1-internal.o)
                                  0x2 (size before relaxing)
 *(.gnu.linkonce.r.*)
 *(.rodata1)
                0x3ffea0fc                __XT_EXCEPTION_TABLE__ = ABSOLUTE (.)
 *(.xt_except_table)
 *(.gcc_except_table)
 *(.gnu.linkonce.e.*)
 *(.gnu.version_r)
 *(.eh_frame)
 .eh_frame      0x3ffea0fc       0x30 /opt/xtensa-lx106-elf/bin/../lib/gcc/xtensa-lx106-elf/4.8.2/libgcc.a(_divdi3.o)
 .eh_frame      0x3ffea12c       0x20 /opt/xtensa-lx106-elf/bin/../lib/gcc/xtensa-lx106-elf/4.8.2/libgcc.a(_umoddi3.o)
                                 0x30 (size before relaxing)
 *crtbegin.o(.ctors)
 *(EXCLUDE_FILE(*crtend.o) .ctors)
 *(SORT(.ctors.*))
 *(.ctors)
 *crtbegin.o(.dtors)
 *(EXCLUDE_FILE(*crtend.o) .dtors)
 *(SORT(.dtors.*))
 *(.dtors)
                0x3ffea14c                __XT_EXCEPTION_DESCS__ = ABSOLUTE (.)
 *(.xt_except_desc)
 *(.gnu.linkonce.h.*)
                0x3ffea14c                __XT_EXCEPTION_DESCS_END__ = ABSOLUTE (.)
 *(.xt_except_desc_end)
 *(.dynamic)
 *(.gnu.version_d)
                0x3ffea14c                . = ALIGN (0x4)
                0x3ffea14c                _bss_table_start = ABSOLUTE (.)
                0x3ffea14c        0x4 LONG 0x3ffea158 _bss_start
                0x3ffea150        0x4 LONG 0x3fff8a08 _bss_end
                0x3ffea154                _bss_table_end = ABSOLUTE (.)
                0x3ffea154                _rodata_end = ABSOLUTE (.)

.UserExceptionVector.literal
                0x3ffea154        0x0
                0x3ffea154                _UserExceptionVector_literal_start = ABSOLUTE (.)
 *(.UserExceptionVector.literal)
 .UserExceptionVector.literal
                0x3ffea154        0x0 ../lib/libmain.a(xtensa_vectors.o)
                0x3ffea154                _UserExceptionVector_literal_end = ABSOLUTE (.)

.bss            0x3ffea158     0xe8b0
                0x3ffea158                . = ALIGN (0x8)
                0x3ffea158                _bss_start = ABSOLUTE (.)
 *(.dynsbss)
 *(.sbss)
 *(.sbss.*)
 *(.gnu.linkonce.sb.*)
 *(.scommon)
 *(.sbss2)
 *(.sbss2.*)
 *(.gnu.linkonce.sb2.*)
 *(.dynbss)
 *(.bss)
 *fill*         0x3ffea158        0x8 
 .bss           0x3ffea160      0x340 ../lib/libmain.a(xtensa_vectors.o)
 .bss           0x3ffea4a0       0x30 ../lib/libmain.a(app_main.o)
                0x3ffea4a0                user_init_flag
                0x3ffea4a4                info
                0x3ffea4c8                xUserTaskHandle
                0x3ffea4cc                xWatchDogTaskHandle
 .bss           0x3ffea4d0       0x40 ../lib/libmain.a(ets_timer.o)
                0x3ffea4d4                timer_list
                0x3ffea4d8                debug_timer
                0x3ffea4dc                debug_timerfn
 .bss           0x3ffea510        0x4 ../lib/libmain.a(misc.o)
                0x3ffea510                _putc1
 .bss           0x3ffea514        0x0 ../lib/libmain.a(printf-stdarg.o)
 .bss           0x3ffea514        0x1 ../lib/libmain.a(spi_flash.o)
                0x3ffea514                FlashIsOnGoing
 .bss           0x3ffea515        0x0 ../lib/libmain.a(uart.o)
 *fill*         0x3ffea515        0xb 
 .bss           0x3ffea520      0x131 ../lib/libmain.a(user_interface.o)
                0x3ffea619                cpu_overclock
                0x3ffea61c                rst_if
                0x3ffea63c                promiscuous_cb
 .bss           0x3ffea651        0x0 ../lib/libmain.a(os_cpu_a.o)
 .bss           0x3ffea651        0x0 ../lib/libmain.a(xtensa_context.o)
 *fill*         0x3ffea651        0x3 
 .bss           0x3ffea654        0x5 ../lib/libmain.a(timers.o)
 *fill*         0x3ffea659        0x3 
 .bss           0x3ffea65c       0x1c ../lib/libfreertos.a(heap_4.o)
 *fill*         0x3ffea678        0x8 
 .bss           0x3ffea680       0x50 ../lib/libfreertos.a(port.o)
                0x3ffea684                cpu_sr
                0x3ffea690                isr
 .bss           0x3ffea6d0        0x0 ../lib/libfreertos.a(queue.o)
 .bss           0x3ffea6d0      0x1cc ../lib/libfreertos.a(tasks.o)
                0x3ffea6d4                pxCurrentTCB
 .bss           0x3ffea89c       0x3c ../lib/libfreertos.a(timers.o)
 .bss           0x3ffea8d8        0x0 ../lib/libfreertos.a(list.o)
 *fill*         0x3ffea8d8        0x8 
 .bss           0x3ffea8e0       0x38 ../lib/liblwip.a(dhcp.o)
                0x3ffea8e0                dhcp_rx_options_given
                0x3ffea8f0                dhcp_rx_options_val
 *fill*         0x3ffea918        0x8 
 .bss           0x3ffea920      0x690 ../lib/liblwip.a(dns.o)
 .bss           0x3ffeafb0       0xd8 ../lib/liblwip.a(etharp.o)
 *fill*         0x3ffeb088        0x8 
 .bss           0x3ffeb090       0x10 ../lib/liblwip.a(ip4_addr.o)
 .bss           0x3ffeb0a0       0x16 ../lib/liblwip.a(ip4.o)
                0x3ffeb0a0                ip_data
 .bss           0x3ffeb0b6        0x0 ../lib/liblwip.a(ip_frag.o)
 .bss           0x3ffeb0b6        0x0 ../lib/liblwip.a(memp.o)
 *fill*         0x3ffeb0b6        0x2 
 .bss           0x3ffeb0b8        0xc ../lib/liblwip.a(netif.o)
                0x3ffeb0bc                netif_list
                0x3ffeb0c0                netif_default
 .bss           0x3ffeb0c4        0x1 ../lib/liblwip.a(pbuf.o)
                0x3ffeb0c4                pbuf_free_ooseq_pending
 *fill*         0x3ffeb0c5        0x3 
 .bss           0x3ffeb0c8        0x4 ../lib/liblwip.a(raw.o)
 .bss           0x3ffeb0cc       0xba ../lib/liblwip.a(stats.o)
                0x3ffeb0cc                lwip_stats
 *fill*         0x3ffeb186        0x2 
 .bss           0x3ffeb188        0x4 ../lib/liblwip.a(sys_arch.o)
                0x3ffeb188                intlevel
 .bss           0x3ffeb18c       0x2c ../lib/liblwip.a(tcp_in.o)
                0x3ffeb1b4                tcp_input_pcb
 .bss           0x3ffeb1b8       0x14 ../lib/liblwip.a(tcpip.o)
                0x3ffeb1c8                xLwipTaskHandle
 .bss           0x3ffeb1cc       0x21 ../lib/liblwip.a(tcp.o)
                0x3ffeb1d0                tcp_active_pcbs
                0x3ffeb1d4                tcp_tmp_pcb
                0x3ffeb1d8                tcp_active_pcbs_changed
                0x3ffeb1dc                tcp_tw_pcbs
                0x3ffeb1e0                tcp_bound_pcbs
                0x3ffeb1e4                tcp_listen_pcbs
                0x3ffeb1e8                tcp_ticks
 .bss           0x3ffeb1ed        0x0 ../lib/liblwip.a(tcp_out.o)
 *fill*         0x3ffeb1ed        0x3 
 .bss           0x3ffeb1f0        0xc ../lib/liblwip.a(timers.o)
                0x3ffeb1f4                LwipTimOutLim
 .bss           0x3ffeb1fc        0x4 ../lib/liblwip.a(udp.o)
                0x3ffeb1fc                udp_pcbs
 .bss           0x3ffeb200        0x0 ../lib/liblwip.a(icmp.o)
 .bss           0x3ffeb200        0x0 ../lib/liblwip.a(inet_chksum.o)
 .bss           0x3ffeb200        0x0 ../lib/liblwip.a(init.o)
 .bss           0x3ffeb200       0x70 ../lib/liblwip.a(sockets.o)
 .bss           0x3ffeb270        0x0 ../lib/liblwip.a(api_lib.o)
 .bss           0x3ffeb270        0x0 ../lib/liblwip.a(api_msg.o)
 .bss           0x3ffeb270        0x0 ../lib/liblwip.a(netbuf.o)
 .bss           0x3ffeb270        0x0 user/.output/eagle/debug/lib/libuser.a(user_main.o)
 .bss           0x3ffeb270        0xc user/.output/eagle/debug/lib/libuser.a(util-logtrace.o)
 .bss           0x3ffeb27c        0x4 user/.output/eagle/debug/lib/libuser.a(util-terminal.o)
 .bss           0x3ffeb280        0x0 user/.output/eagle/debug/lib/libuser.a(util-task.o)
 .bss           0x3ffeb280      0x224 user/.output/eagle/debug/lib/libuser.a(task-af.o)
 .bss           0x3ffeb4a4        0x0 user/.output/eagle/debug/lib/libuser.a(http-protocol.o)
 .bss           0x3ffeb4a4        0x8 user/.output/eagle/debug/lib/libuser.a(af-interface.o)
 .bss           0x3ffeb4ac     0x1020 user/.output/eagle/debug/lib/libuser.a(af-buffer.o)
 .bss           0x3ffec4cc        0x1 user/.output/eagle/debug/lib/libuser.a(tcp-socket.o)
 *fill*         0x3ffec4cd        0x3 
 .bss           0x3ffec4d0     0x2004 ../../codec-mpeg/.output/eagle/debug/lib/libcodec-mpeg.a(codec-mpeg.o)
 .bss           0x3ffee4d4        0x0 ../../codec-mpeg/.output/eagle/debug/lib/libcodec-mpeg.a(frame.o)
 .bss           0x3ffee4d4     0x1200 ../../codec-mpeg/.output/eagle/debug/lib/libcodec-mpeg.a(layer3.o)
 .bss           0x3ffef6d4        0x0 ../../codec-mpeg/.output/eagle/debug/lib/libcodec-mpeg.a(stream.o)
 .bss           0x3ffef6d4        0x0 ../../codec-mpeg/.output/eagle/debug/lib/libcodec-mpeg.a(synth_stereo.o)
 .bss           0x3ffef6d4        0x0 ../../codec-mpeg/.output/eagle/debug/lib/libcodec-mpeg.a(timer.o)
 .bss           0x3ffef6d4        0x0 ../../codec-mpeg/.output/eagle/debug/lib/libcodec-mpeg.a(align.o)
 .bss           0x3ffef6d4        0x0 ../../codec-mpeg/.output/eagle/debug/lib/libcodec-mpeg.a(bit.o)
 .bss           0x3ffef6d4        0x0 ../../codec-mpeg/.output/eagle/debug/lib/libcodec-mpeg.a(huffman.o)
 .bss           0x3ffef6d4        0xc ../../adif-esp-i2s-dsm/.output/eagle/debug/lib/libadif-esp-i2s-dsm.a(adif-esp-i2s-dsm.o)
 .bss           0x3ffef6e0       0xf0 driver/.output/eagle/debug/lib/libdriver.a(i2s_freertos.o)
 .bss           0x3ffef7d0        0x0 driver/.output/eagle/debug/lib/libdriver.a(uart.o)
 .bss           0x3ffef7d0        0x0 /opt/xtensa-lx106-elf/bin/../lib/gcc/xtensa-lx106-elf/4.8.2/libgcc.a(_divsi3.o)
 .bss           0x3ffef7d0        0x0 /opt/xtensa-lx106-elf/bin/../lib/gcc/xtensa-lx106-elf/4.8.2/libgcc.a(_modsi3.o)
 .bss           0x3ffef7d0        0x0 /opt/xtensa-lx106-elf/bin/../lib/gcc/xtensa-lx106-elf/4.8.2/libgcc.a(_udivsi3.o)
 .bss           0x3ffef7d0        0x0 /opt/xtensa-lx106-elf/bin/../lib/gcc/xtensa-lx106-elf/4.8.2/libgcc.a(_umodsi3.o)
 .bss           0x3ffef7d0        0x0 /opt/xtensa-lx106-elf/bin/../lib/gcc/xtensa-lx106-elf/4.8.2/libhal.a(clock.o)
 .bss           0x3ffef7d0        0x0 /opt/xtensa-lx106-elf/bin/../lib/gcc/xtensa-lx106-elf/4.8.2/libhal.a(int_asm--set_intset.o)
 .bss           0x3ffef7d0        0x4 ../lib/libphy.a(phy.o)
 .bss           0x3ffef7d4        0x0 ../lib/libphy.a(phy_chip_v5_ana_romfunc.o)
 .bss           0x3ffef7d4        0x0 ../lib/libphy.a(phy_chip_v5_romfunc.o)
 .bss           0x3ffef7d4        0x0 ../lib/libphy.a(phy_chip_v6_ana.o)
 *fill*         0x3ffef7d4        0xc 
 .bss           0x3ffef7e0      0x3ab ../lib/libphy.a(phy_chip_v6.o)
                0x3ffef7e0                rxiq_compute_num
                0x3ffef7e4                rxdc_init_flag
                0x3ffef7e8                check_result
                0x3ffef7ec                chip6_sleep_params
                0x3ffef9d0                chip6_phy_init_ctrl
                0x3ffefa44                phy_freq_offset
                0x3ffefa46                do_pwctrl_flag
                0x3ffefa47                pwctrl_debug
                0x3ffefa48                txbk_dpdby_flag
                0x3ffefa4a                sw_scan_mode
                0x3ffefa5c                periodic_cal_dc_num
                0x3ffefa60                periodic_cal_flag
                0x3ffefa61                bbpll_cal_flag
                0x3ffefa62                phy_in_most_power
                0x3ffefa63                deep_sleep_en
                0x3ffefa64                rtc_mem_check_fail
                0x3ffefa65                rtc_recovery_en
                0x3ffefa66                phy_in_vdd33_offset
                0x3ffefa67                phy_set_most_tpw_disbg
                0x3ffefa68                phy_set_most_tpw_index
                0x3ffefa6c                adc_rand_noise
                0x3ffefa70                dpd_bypass_original
                0x3ffefa78                noise_array
                0x3ffefb80                tx_pwctrl_atten_init
 *fill*         0x3ffefb8b        0x1 
 .bss           0x3ffefb8c        0x6 ../lib/libphy.a(phy_chip_v6_cal.o)
                0x3ffefb8c                loop_pwctrl_pwdet_error_accum_high_power
                0x3ffefb8e                tx_pwctrl_pk_num
                0x3ffefb8f                loop_pwctrl_correct_atten_high_power
                0x3ffefb90                tx_pwctrl_set_chan_flag
                0x3ffefb91                rxiq_cover_fail_num
 .bss           0x3ffefb92        0x0 ../lib/libphy.a(phy_chip_v6_unused.o)
 *fill*         0x3ffefb92        0x2 
 .bss           0x3ffefb94        0x7 ../lib/libphy.a(phy_sleep.o)
                0x3ffefb94                periodic_cal_sat
                0x3ffefb96                lslp_mem_opt_8266
                0x3ffefb98                software_slp_reject
                0x3ffefb99                SDIO_slp_reject
                0x3ffefb9a                hardware_reject
 .bss           0x3ffefb9b        0x0 ../lib/libphy.a(phy_chip_v5_cal_romfunc.o)
 *fill*         0x3ffefb9b        0x5 
 .bss           0x3ffefba0      0x150 ../lib/libpp.a(lmac.o)
                0x3ffefba4                lmacConfMib
 .bss           0x3ffefcf0      0x13a ../lib/libpp.a(pm.o)
                0x3ffefdec                CCOMPARE_AddVal
 *fill*         0x3ffefe2a        0x6 
 .bss           0x3ffefe30      0x352 ../lib/libpp.a(pp.o)
                0x3ffefe58                pend_flag_noise_check
                0x3ffefe60                pend_flag_periodic_cal
                0x3ffefe80                idle_timer_reopen_flag
                0x3ffefe88                dbg_stop_sw_wdt
                0x3ffefe89                dbg_stop_hw_wdt
 *fill*         0x3fff0182        0xe 
 .bss           0x3fff0190      0x100 ../lib/libpp.a(rate_control.o)
 .bss           0x3fff0290      0x268 ../lib/libpp.a(trc.o)
 *fill*         0x3fff04f8        0x8 
 .bss           0x3fff0500     0x56d1 ../lib/libpp.a(wdev.o)
                0x3fff0500                wDevCtrl
                0x3fff06a4                NMIIrqIsOn
                0x3fff06a8                WdevTimOffSet
 *fill*         0x3fff5bd1        0xf 
 .bss           0x3fff5be0     0x123c ../lib/libpp.a(esf_buf.o)
 *fill*         0x3fff6e1c        0x4 
 .bss           0x3fff6e20       0x30 ../lib/libpp.a(if_hwctrl.o)
                0x3fff6e20                interface_mask
                0x3fff6e30                if_ctrl
 .bss           0x3fff6e50      0x54c ../lib/libnet80211.a(ieee80211.o)
                0x3fff6e50                g_ic
                0x3fff7398                xieee80211Queue
 .bss           0x3fff739c        0x0 ../lib/libnet80211.a(ieee80211_crypto.o)
 .bss           0x3fff739c        0x0 ../lib/libnet80211.a(ieee80211_ets.o)
 .bss           0x3fff739c       0x28 ../lib/libnet80211.a(ieee80211_hostap.o)
                0x3fff73bc                TmpSTAAPCloseAP
                0x3fff73bd                PendFreeBcnEb
 .bss           0x3fff73c4        0x0 ../lib/libnet80211.a(ieee80211_ht.o)
 .bss           0x3fff73c4        0x0 ../lib/libnet80211.a(ieee80211_input.o)
 .bss           0x3fff73c4        0x0 ../lib/libnet80211.a(ieee80211_output.o)
 .bss           0x3fff73c4        0x0 ../lib/libnet80211.a(ieee80211_phy.o)
 .bss           0x3fff73c4        0x0 ../lib/libnet80211.a(ieee80211_power.o)
 .bss           0x3fff73c4        0x0 ../lib/libnet80211.a(ieee80211_proto.o)
 .bss           0x3fff73c4       0xe4 ../lib/libnet80211.a(ieee80211_scan.o)
                0x3fff73c4                gScanStruct
                0x3fff7488                auth_type
                0x3fff748a                scannum
 .bss           0x3fff74a8        0x0 ../lib/libnet80211.a(ieee80211_sta.o)
 .bss           0x3fff74a8       0x44 ../lib/libnet80211.a(wl_chm.o)
 *fill*         0x3fff74ec        0x4 
 .bss           0x3fff74f0      0x780 ../lib/libnet80211.a(wl_cnx.o)
                0x3fff7c50                sta_con_timer
                0x3fff7c6c                g_cnx_probe_rc_list_cb
 .bss           0x3fff7c70        0x0 ../lib/libnet80211.a(ieee80211_action.o)
 .bss           0x3fff7c70        0x0 ../lib/libwpa.a(ap_config.o)
 .bss           0x3fff7c70        0x0 ../lib/libwpa.a(common.o)
 .bss           0x3fff7c70        0x0 ../lib/libwpa.a(os_xtensa.o)
 .bss           0x3fff7c70        0x0 ../lib/libwpa.a(sha1-pbkdf2.o)
 .bss           0x3fff7c70        0x0 ../lib/libwpa.a(wpa_auth.o)
 .bss           0x3fff7c70        0x0 ../lib/libwpa.a(wpa_auth_ie.o)
 .bss           0x3fff7c70      0x27a ../lib/libwpa.a(wpa.o)
 .bss           0x3fff7eea        0x0 ../lib/libwpa.a(wpa_common.o)
 .bss           0x3fff7eea        0x0 ../lib/libwpa.a(wpa_debug.o)
 .bss           0x3fff7eea        0x0 ../lib/libwpa.a(wpa_ie.o)
 .bss           0x3fff7eea        0x0 ../lib/libwpa.a(wpa_main.o)
 .bss           0x3fff7eea        0x0 ../lib/libwpa.a(wpas_glue.o)
 .bss           0x3fff7eea        0x0 ../lib/libwpa.a(aes-unwrap.o)
 .bss           0x3fff7eea        0x0 ../lib/libwpa.a(aes-wrap.o)
 .bss           0x3fff7eea        0x0 ../lib/libwpa.a(md5.o)
 .bss           0x3fff7eea        0x0 ../lib/libwpa.a(md5-internal.o)
 .bss           0x3fff7eea        0x0 ../lib/libwpa.a(rc4.o)
 .bss           0x3fff7eea        0x0 ../lib/libwpa.a(sha1.o)
 .bss           0x3fff7eea        0x0 ../lib/libwpa.a(sha1-internal.o)
 *fill*         0x3fff7eea        0x6 
 .bss           0x3fff7ef0       0xb0 ../lib/libwpa.a(aes-internal-dec.o)
 .bss           0x3fff7fa0        0x0 ../lib/libwpa.a(aes-internal-enc.o)
 .bss           0x3fff7fa0        0x0 ../lib/libwpa.a(aes-internal.o)
 .bss           0x3fff7fa0        0x4 ../lib/libmain.a(libc.o)
 .bss           0x3fff7fa4        0x0 ../lib/liblwip.a(ethernetif.o)
 *fill*         0x3fff7fa4        0x4 
 .bss           0x3fff7fa8       0x2c ../lib/liblwip.a(netdb.o)
                0x3fff7fa8                h_errno
 .bss           0x3fff7fd4        0x0 /opt/xtensa-lx106-elf/bin/../lib/gcc/xtensa-lx106-elf/4.8.2/libgcc.a(_ashrdi3.o)
 .bss           0x3fff7fd4        0x0 /opt/xtensa-lx106-elf/bin/../lib/gcc/xtensa-lx106-elf/4.8.2/libgcc.a(_addsubsf3.o)
 .bss           0x3fff7fd4        0x0 /opt/xtensa-lx106-elf/bin/../lib/gcc/xtensa-lx106-elf/4.8.2/libgcc.a(_mulsf3.o)
 .bss           0x3fff7fd4        0x0 /opt/xtensa-lx106-elf/bin/../lib/gcc/xtensa-lx106-elf/4.8.2/libgcc.a(_divsf3.o)
 .bss           0x3fff7fd4        0x0 /opt/xtensa-lx106-elf/bin/../lib/gcc/xtensa-lx106-elf/4.8.2/libgcc.a(_fixsfsi.o)
 .bss           0x3fff7fd4        0x0 /opt/xtensa-lx106-elf/bin/../lib/gcc/xtensa-lx106-elf/4.8.2/libgcc.a(_fixunssfsi.o)
 .bss           0x3fff7fd4        0x0 /opt/xtensa-lx106-elf/bin/../lib/gcc/xtensa-lx106-elf/4.8.2/libgcc.a(_floatsisf.o)
 .bss           0x3fff7fd4        0x0 /opt/xtensa-lx106-elf/bin/../lib/gcc/xtensa-lx106-elf/4.8.2/libgcc.a(_addsubdf3.o)
 .bss           0x3fff7fd4        0x0 /opt/xtensa-lx106-elf/bin/../lib/gcc/xtensa-lx106-elf/4.8.2/libgcc.a(_muldf3.o)
 .bss           0x3fff7fd4        0x0 /opt/xtensa-lx106-elf/bin/../lib/gcc/xtensa-lx106-elf/4.8.2/libgcc.a(_divdf3.o)
 .bss           0x3fff7fd4        0x0 /opt/xtensa-lx106-elf/bin/../lib/gcc/xtensa-lx106-elf/4.8.2/libgcc.a(_fixdfsi.o)
 .bss           0x3fff7fd4        0x0 /opt/xtensa-lx106-elf/bin/../lib/gcc/xtensa-lx106-elf/4.8.2/libgcc.a(_floatsidf.o)
 .bss           0x3fff7fd4        0x0 /opt/xtensa-lx106-elf/bin/../lib/gcc/xtensa-lx106-elf/4.8.2/libgcc.a(_truncdfsf2.o)
 .bss           0x3fff7fd4        0x0 /opt/xtensa-lx106-elf/bin/../lib/gcc/xtensa-lx106-elf/4.8.2/libgcc.a(_extendsfdf2.o)
 .bss           0x3fff7fd4        0x0 /opt/xtensa-lx106-elf/bin/../lib/gcc/xtensa-lx106-elf/4.8.2/libgcc.a(_muldi3.o)
 .bss           0x3fff7fd4        0x0 /opt/xtensa-lx106-elf/bin/../lib/gcc/xtensa-lx106-elf/4.8.2/libgcc.a(_popcountsi2.o)
 .bss           0x3fff7fd4        0x0 /opt/xtensa-lx106-elf/bin/../lib/gcc/xtensa-lx106-elf/4.8.2/libgcc.a(_divdi3.o)
 .bss           0x3fff7fd4        0x0 /opt/xtensa-lx106-elf/bin/../lib/gcc/xtensa-lx106-elf/4.8.2/libgcc.a(_umoddi3.o)
 .bss           0x3fff7fd4        0x0 /opt/xtensa-lx106-elf/bin/../lib/gcc/xtensa-lx106-elf/4.8.2/libgcc.a(_umulsidi3.o)
 .bss           0x3fff7fd4        0x0 /opt/xtensa-lx106-elf/bin/../lib/gcc/xtensa-lx106-elf/4.8.2/libgcc.a(_popcount_tab.o)
 .bss           0x3fff7fd4        0x0 ../lib/libnet80211.a(ieee80211_crypto_ccmp.o)
 *fill*         0x3fff7fd4        0x4 
 .bss           0x3fff7fd8        0x8 ../lib/libnet80211.a(ieee80211_crypto_tkip.o)
 .bss           0x3fff7fe0        0x0 ../lib/libnet80211.a(ieee80211_crypto_wep.o)
 *(.bss.*)
 *(.gnu.linkonce.b.*)
 *(COMMON)
 COMMON         0x3fff7fe0        0x8 user/.output/eagle/debug/lib/libuser.a(util-terminal.o)
                0x3fff7fe0                term_func_out
                0x3fff7fe4                term_func_in
 COMMON         0x3fff7fe8        0xc user/.output/eagle/debug/lib/libuser.a(task-af.o)
                0x3fff7fe8                audio_running
                0x3fff7fec                audio_status
                0x3fff7ff0                adif_instance
 COMMON         0x3fff7ff4      0xa07 ../../codec-mpeg/.output/eagle/debug/lib/libcodec-mpeg.a(stream.o)
                0x3fff7ff4                MainData
 *fill*         0x3fff89fb        0x1 
 COMMON         0x3fff89fc        0x8 driver/.output/eagle/debug/lib/libdriver.a(uart.o)
                0x3fff89fc                xUartTaskHandle
                0x3fff8a00                xQueueUart
                0x3fff8a08                . = ALIGN (0x8)
 *fill*         0x3fff8a04        0x4 
                0x3fff8a08                _bss_end = ABSOLUTE (.)
                0x3fff8a08                _heap_start = ABSOLUTE (.)

.text           0x40100000     0x7dbc
                0x40100000                _stext = .
                0x40100000                _text_start = ABSOLUTE (.)
 *(.UserEnter.text)
 .UserEnter.text
                0x40100000        0xd ../lib/libmain.a(xtensa_vectors.o)
                                 0x14 (size before relaxing)
                0x40100004                call_user_start
                0x40100010                . = ALIGN (0x10)
 *fill*         0x4010000d        0x3 
 *(.DebugExceptionVector.text)
 .DebugExceptionVector.text
                0x40100010        0x9 ../lib/libmain.a(xtensa_vectors.o)
                                 0x10 (size before relaxing)
                0x40100010                _DebugExceptionVector
                0x40100020                . = ALIGN (0x10)
 *fill*         0x40100019        0x7 
 *(.NMIExceptionVector.text)
 .NMIExceptionVector.text
                0x40100020        0x6 ../lib/libmain.a(xtensa_vectors.o)
                                  0xd (size before relaxing)
                0x40100020                _NMIExceptionVector
                0x40100030                . = ALIGN (0x10)
 *fill*         0x40100026        0xa 
 *(.KernelExceptionVector.text)
 .KernelExceptionVector.text
                0x40100030        0x6 ../lib/libmain.a(xtensa_vectors.o)
                                  0xd (size before relaxing)
                0x40100030                _KernelExceptionVector
                0x40100036        0x4 LONG 0x0
                0x4010003a        0x4 LONG 0x0
                0x4010003e        0x4 LONG 0x0
                0x40100042        0x4 LONG 0x0
                0x40100050                . = ALIGN (0x10)
 *fill*         0x40100046        0xa 
 *(.UserExceptionVector.text)
 .UserExceptionVector.text
                0x40100050        0x6 ../lib/libmain.a(xtensa_vectors.o)
                                  0xd (size before relaxing)
                0x40100050                _UserExceptionVector
                0x40100056        0x4 LONG 0x0
                0x4010005a        0x4 LONG 0x0
                0x4010005e        0x4 LONG 0x0
                0x40100062        0x4 LONG 0x0
                0x40100070                . = ALIGN (0x10)
 *fill*         0x40100066        0xa 
 *(.DoubleExceptionVector.text)
 .DoubleExceptionVector.text
                0x40100070        0x9 ../lib/libmain.a(xtensa_vectors.o)
                                 0x10 (size before relaxing)
                0x40100070                _DoubleExceptionVector
                0x40100079        0x4 LONG 0x0
                0x4010007d        0x4 LONG 0x0
                0x40100081        0x4 LONG 0x0
                0x40100085        0x4 LONG 0x0
                0x40100090                . = ALIGN (0x10)
 *fill*         0x40100089        0x7 
 *(.entry.text)
 *(.init.literal)
 *(.init)
 *(.literal .text .literal.* .text.* .stub .gnu.warning .gnu.linkonce.literal.* .gnu.linkonce.t.*.literal .gnu.linkonce.t.*)
 .text          0x40100090      0x19b ../lib/libmain.a(xtensa_vectors.o)
                                0x1c7 (size before relaxing)
                0x40100090                _xt_panic
                0x40100138                _xt_user_exit
 *fill*         0x4010022b        0x1 
 .text          0x4010022c      0x3b6 ../lib/libmain.a(app_main.o)
                                0x3f6 (size before relaxing)
                0x40100360                user_fatal_exception_handler
                0x40100450                user_start
                0x40100598                vApplicationStackOverflowHook
                0x401005c4                vApplicationTickHook
 *fill*         0x401005e2        0x2 
 .text          0x401005e4        0xb ../lib/libmain.a(misc.o)
                0x401005e8                os_get_cpu_frequency
 *fill*         0x401005ef        0x1 
 .text          0x401005f0      0x598 ../lib/libmain.a(printf-stdarg.o)
                                0x5d0 (size before relaxing)
                0x401009e8                printf
                0x401009e8                ets_printf
                0x40100a7c                sprintf
                0x40100b1c                snprintf
                0x40100b4c                puts
                0x40100b64                putchar
                0x40100b84                __write
 .text          0x40100b88      0x43c ../lib/libmain.a(spi_flash.o)
                                0x548 (size before relaxing)
                0x40100ba8                SPIReadModeCnfig
                0x40100c2c                SPIWrite
                0x40100d00                SPIRead
                0x40100d30                SPIEraseSector
                0x40100d84                spi_flash_get_id
                0x40100e00                spi_flash_read_status
                0x40100e50                spi_flash_write_status
                0x40100ea0                spi_flash_erase_sector
                0x40100ef0                spi_flash_write
                0x40100f64                spi_flash_read
 .text          0x40100fc4      0x238 ../lib/libmain.a(user_interface.o)
                                0x284 (size before relaxing)
                0x40100fe4                system_restart_in_nmi
                0x40101154                system_rtc_mem_write
                0x401011a8                system_rtc_mem_read
 .text          0x401011fc      0x173 ../lib/libmain.a(os_cpu_a.o)
                                0x1b3 (size before relaxing)
                0x401011fc                vPortYield
                0x40101238                _xt_int_enter
                0x40101250                _xt_int_exit
                0x40101278                _xt_timer_int
                0x401012ac                _xt_timer_int1
                0x401012c8                _xt_tick_timer_init
                0x401012ec                _xt_update_xt_ccompare
                0x40101308                _xt_set_xt_ccompare_val
                0x40101320                _xt_isr_unmask
                0x40101338                _xt_isr_mask
                0x40101350                _xt_read_ints
                0x40101360                _xt_clear_ints
 *fill*         0x4010136f        0x1 
 .text          0x40101370      0x2c1 ../lib/libfreertos.a(heap_4.o)
                                0x32d (size before relaxing)
                0x4010137c                malloc
                0x4010137c                pvPortMalloc
                0x40101488                vPortFree
                0x40101488                free
                0x4010151c                pvPortCalloc
                0x4010151c                calloc
                0x40101544                pvPortZalloc
                0x40101544                zalloc
                0x40101558                pvPortRealloc
                0x40101558                realloc
                0x40101590                xPortGetFreeHeapSize
                0x40101598                vPortInitialiseBlocks
 *fill*         0x40101631        0x3 
 .text          0x40101634      0x1df ../lib/libfreertos.a(port.o)
                                0x23b (size before relaxing)
                0x40101638                PendSV
                0x4010168c                SoftIsrHdl
                0x401016d0                xPortSysTickHandle
                0x401016e8                vPortEnterCritical
                0x4010170c                vPortExitCritical
                0x40101734                PortDisableInt_NoNest
                0x40101758                PortEnableInt_NoNest
                0x4010178c                _xt_isr_attach
                0x40101798                _xt_isr_handler
 *fill*         0x40101813        0x1 
 .text          0x40101814      0x1fb ../lib/libfreertos.a(queue.o)
                                0x213 (size before relaxing)
                0x40101818                xQueueGenericSendFromISR
                0x40101884                xQueueReceiveFromISR
                0x401018f4                xQueuePeekFromISR
                0x40101924                uxQueueMessagesWaitingFromISR
                0x401019ec                xQueueIsQueueEmptyFromISR
                0x401019fc                xQueueIsQueueFullFromISR
 *fill*         0x40101a0f        0x1 
 .text          0x40101a10      0x29d ../lib/libfreertos.a(tasks.o)
                                0x2ed (size before relaxing)
                0x40101a20                xTaskIncrementTick
                0x40101b90                vTaskSwitchContext
                0x40101c5c                vTaskPriorityDisinherit
 *fill*         0x40101cad        0x3 
 .text          0x40101cb0       0x2e ../lib/liblwip.a(netbuf.o)
                                 0x32 (size before relaxing)
                0x40101cb4                netbuf_new
 *fill*         0x40101cde        0x2 
 .text          0x40101ce0       0x19 user/.output/eagle/debug/lib/libuser.a(util-logtrace.o)
                                 0x1d (size before relaxing)
 *fill*         0x40101cf9        0x3 
 .text          0x40101cfc       0xe5 user/.output/eagle/debug/lib/libuser.a(util-terminal.o)
                0x40101d04                ws_putc
                0x40101d40                ws_puts
                0x40101d64                ws_gets
 *fill*         0x40101de1        0x3 
 .text          0x40101de4       0xdf user/.output/eagle/debug/lib/libuser.a(util-task.o)
                                 0xef (size before relaxing)
                0x40101dec                util_create_semaphore
                0x40101e20                util_destroy_semaphore
                0x40101e38                util_semaphore_take
                0x40101e50                util_semaphore_give
                0x40101e6c                util_create_mutex
                0x40101e80                util_mutex_take
                0x40101e98                util_mutex_give
                0x40101eb0                util_mutex_destroy
 *fill*         0x40101ec3        0x1 
 .text          0x40101ec4       0x33 ../../codec-mpeg/.output/eagle/debug/lib/libcodec-mpeg.a(codec-mpeg.o)
 *fill*         0x40101ef7        0x1 
 .text          0x40101ef8       0x21 ../../codec-mpeg/.output/eagle/debug/lib/libcodec-mpeg.a(synth_stereo.o)
 *fill*         0x40101f19        0x3 
 .text          0x40101f1c       0x24 ../../codec-mpeg/.output/eagle/debug/lib/libcodec-mpeg.a(timer.o)
                0x40101f20                mad_timer_abs
 .text          0x40101f40      0x237 ../../codec-mpeg/.output/eagle/debug/lib/libcodec-mpeg.a(bit.o)
                                0x267 (size before relaxing)
                0x40101f40                mad_bit_init
                0x40101f50                mad_bit_length
                0x40101f6c                mad_bit_nextbyte
                0x40101f80                mad_bit_skip
                0x40101fb8                mad_bit_read
                0x40102040                mad_bit_crc
 *fill*         0x40102177        0x1 
 .text          0x40102178       0xcf driver/.output/eagle/debug/lib/libdriver.a(i2s_freertos.o)
                                 0xef (size before relaxing)
                0x401021fc                i2sPushSample
 *fill*         0x40102247        0x1 
 .text          0x40102248      0x1a3 driver/.output/eagle/debug/lib/libdriver.a(uart.o)
                                0x1bf (size before relaxing)
                0x40102250                uart_tx_one_char
 *fill*         0x401023eb        0x1 
 .text          0x401023ec       0x53 ../lib/libphy.a(phy.o)
                                 0x5f (size before relaxing)
                0x401023f4                register_phy_ops
                0x40102414                register_get_phy_addr
                0x4010241c                phy_change_channel
                0x40102434                phy_get_mactime
 *fill*         0x4010243f        0x1 
 .text          0x40102440        0xb ../lib/libphy.a(phy_chip_v5_romfunc.o)
                0x40102444                phy_get_romfuncs
 *fill*         0x4010244b        0x1 
 .text          0x4010244c       0xbf ../lib/libphy.a(phy_chip_v6_cal.o)
                0x4010244c                unsign_to_sign
                0x40102484                phy_get_bb_freqoffset
 *fill*         0x4010250b        0x1 
 .text          0x4010250c       0xef ../lib/libphy.a(phy_sleep.o)
                                0x103 (size before relaxing)
                0x40102518                pm_rtc_clock_cali
                0x401025d0                clockgate_watchdog
 *fill*         0x401025fb        0x1 
 .text          0x401025fc     0x14e4 ../lib/libpp.a(lmac.o)
                               0x187c (size before relaxing)
                0x40102600                lmacIsActive
                0x40102614                lmacIsIdle
                0x40102a60                lmacSetAcParam
                0x40102afc                lmacProcessTXStartData
                0x40102ca4                lmacProcessTxSuccess
                0x40102dec                GetAccess
                0x40102df8                lmacDiscardAgedMSDU
                0x40102e0c                lmacRecycleMPDU
                0x401032ec                lmacProcessCollisions
                0x40103348                lmacProcessCollision
                0x401033cc                lmacMSDUAged
                0x40103750                lmacProcessCtsTimeout
                0x40103798                lmacProcessAckTimeout
                0x401037ec                lmacProcessRtsStart
                0x401037f8                lmacProcessTxRtsError
                0x40103890                lmacProcessTxError
                0x40103914                lmacTxFrame
                0x40103ac8                lmacRxDone
 .text          0x40103ae0      0xe5c ../lib/libpp.a(pp.o)
                               0x103c (size before relaxing)
                0x40103b10                pp_soft_wdt_feed
                0x40103c24                ppProcessTxQ
                0x40103d14                ppFetchTxQFirstAvail
                0x40103d54                ppDequeueTxQ
                0x40103d7c                ppRollBackTxQ
                0x40103da0                ppRecordBarRRC
                0x40103db0                ppTxqUpdateBitmap
                0x40103dd4                ppEnqueueTxDone
                0x40103e08                ppEnqueueRxq
                0x401045d0                ppDiscardMPDU
                0x40104600                MacIsrSigPostDefHdl
                0x401046e8                pp_post
                0x401047e8                ppCalTxop
                0x401048cc                ppCalFrameTimes
 .text          0x4010493c       0xf5 ../lib/libpp.a(rate_control.o)
                                0x109 (size before relaxing)
                0x4010495c                RC_GetAckRate
                0x40104968                RC_GetRtsRate
                0x40104978                RC_GetAckTime
                0x4010498c                RC_GetCtsTime
                0x401049c4                RC_GetBlockAckTime
 *fill*         0x40104a31        0x3 
 .text          0x40104a34      0x7f9 ../lib/libpp.a(trc.o)
                                0x81d (size before relaxing)
                0x40104bac                rcUpdateTxDone
                0x40104c40                rcUpdateRxDone
                0x40104c9c                rcUpdateDataRxDone
                0x40104cb4                rcGetSched
                0x40104d5c                rcGetRate
                0x40105160                rcReachRetryLimit
                0x40105178                trc_NeedRTS
 *fill*         0x4010522d        0x3 
 .text          0x40105230     0x1186 ../lib/libpp.a(wdev.o)
                               0x14a6 (size before relaxing)
                0x40105580                wDev_MacTimSetFunc
                0x401055a0                wDev_MacTimArm
                0x40105644                wDev_MacTim1SetFunc
                0x40105660                wDev_MacTim1Arm
                0x4010573c                wDev_ProcessFiq
                0x40105af4                wDev_EnableTransmit
                0x40105b38                wDev_DisableTransmit
                0x40105b58                Tx_Copy2Queue
                0x40105ba0                wDev_ProcessCollision
                0x40105bc4                wDev_GetTxqCollisions
                0x40105bd4                wDev_ClearTxqCollisions
                0x40105bf0                wDev_SetWaitingQueue
                0x40105c3c                wDev_ClearWaitingQueue
                0x40105c60                wDev_SetFrameAckType
                0x40105cc4                wDev_AppendRxBlocks
                0x40105e6c                wDev_AppendRxAmpduLensBlocks
                0x40105fa4                wDev_GetBAInfo
 *fill*         0x401063b6        0x2 
 .text          0x401063b8       0x94 ../lib/libpp.a(esf_buf.o)
                                 0xb4 (size before relaxing)
                0x401063bc                esf_rx_buf_alloc
 .text          0x4010644c        0xb ../lib/libnet80211.a(wl_chm.o)
                0x40106450                chm_get_current_channel
 *fill*         0x40106457        0x1 
 .text          0x40106458       0x76 ../lib/libmain.a(libc.o)
                                 0x7e (size before relaxing)
                0x4010646c                rand_r
                0x401064bc                rand
 *fill*         0x401064ce        0x2 
 .literal       0x401064d0        0x4 /opt/xtensa-lx106-elf/bin/../lib/gcc/xtensa-lx106-elf/4.8.2/libgcc.a(_addsubsf3.o)
                                  0xc (size before relaxing)
 .literal       0x401064d4        0x0 /opt/xtensa-lx106-elf/bin/../lib/gcc/xtensa-lx106-elf/4.8.2/libgcc.a(_mulsf3.o)
                                 0x10 (size before relaxing)
 .literal       0x401064d4        0x0 /opt/xtensa-lx106-elf/bin/../lib/gcc/xtensa-lx106-elf/4.8.2/libgcc.a(_divsf3.o)
                                 0x10 (size before relaxing)
 .literal       0x401064d4        0x0 /opt/xtensa-lx106-elf/bin/../lib/gcc/xtensa-lx106-elf/4.8.2/libgcc.a(_fixsfsi.o)
                                  0x4 (size before relaxing)
 .literal       0x401064d4        0x0 /opt/xtensa-lx106-elf/bin/../lib/gcc/xtensa-lx106-elf/4.8.2/libgcc.a(_fixunssfsi.o)
                                  0x4 (size before relaxing)
 .literal       0x401064d4        0x8 /opt/xtensa-lx106-elf/bin/../lib/gcc/xtensa-lx106-elf/4.8.2/libgcc.a(_addsubdf3.o)
                                  0xc (size before relaxing)
 .literal       0x401064dc        0x4 /opt/xtensa-lx106-elf/bin/../lib/gcc/xtensa-lx106-elf/4.8.2/libgcc.a(_muldf3.o)
                                 0x10 (size before relaxing)
 .literal       0x401064e0        0x0 /opt/xtensa-lx106-elf/bin/../lib/gcc/xtensa-lx106-elf/4.8.2/libgcc.a(_divdf3.o)
                                 0x10 (size before relaxing)
 .literal       0x401064e0        0x0 /opt/xtensa-lx106-elf/bin/../lib/gcc/xtensa-lx106-elf/4.8.2/libgcc.a(_fixdfsi.o)
                                  0x4 (size before relaxing)
 .literal       0x401064e0        0x4 /opt/xtensa-lx106-elf/bin/../lib/gcc/xtensa-lx106-elf/4.8.2/libgcc.a(_truncdfsf2.o)
                                  0x8 (size before relaxing)
 .literal       0x401064e4        0x0 /opt/xtensa-lx106-elf/bin/../lib/gcc/xtensa-lx106-elf/4.8.2/libgcc.a(_extendsfdf2.o)
                                  0x8 (size before relaxing)
 .literal       0x401064e4        0x0 /opt/xtensa-lx106-elf/bin/../lib/gcc/xtensa-lx106-elf/4.8.2/libgcc.a(_muldi3.o)
                                  0x4 (size before relaxing)
 .literal       0x401064e4        0x4 /opt/xtensa-lx106-elf/bin/../lib/gcc/xtensa-lx106-elf/4.8.2/libgcc.a(_popcountsi2.o)
 .literal       0x401064e8        0x0 /opt/xtensa-lx106-elf/bin/../lib/gcc/xtensa-lx106-elf/4.8.2/libgcc.a(_divdi3.o)
                                 0x48 (size before relaxing)
 .literal       0x401064e8        0x0 /opt/xtensa-lx106-elf/bin/../lib/gcc/xtensa-lx106-elf/4.8.2/libgcc.a(_umoddi3.o)
                                 0x40 (size before relaxing)
 .text          0x401064e8      0x1ff /opt/xtensa-lx106-elf/bin/../lib/gcc/xtensa-lx106-elf/4.8.2/libgcc.a(_addsubsf3.o)
                0x40106504                __addsf3
                0x401065ec                __subsf3
 *fill*         0x401066e7        0x1 
 .text          0x401066e8      0x15d /opt/xtensa-lx106-elf/bin/../lib/gcc/xtensa-lx106-elf/4.8.2/libgcc.a(_mulsf3.o)
                0x40106760                __mulsf3
 *fill*         0x40106845        0x3 
 .text          0x40106848      0x135 /opt/xtensa-lx106-elf/bin/../lib/gcc/xtensa-lx106-elf/4.8.2/libgcc.a(_divsf3.o)
                0x401068c4                __divsf3
 *fill*         0x4010697d        0x3 
 .text          0x40106980       0x40 /opt/xtensa-lx106-elf/bin/../lib/gcc/xtensa-lx106-elf/4.8.2/libgcc.a(_fixsfsi.o)
                0x40106980                __fixsfsi
 .text          0x401069c0       0x51 /opt/xtensa-lx106-elf/bin/../lib/gcc/xtensa-lx106-elf/4.8.2/libgcc.a(_fixunssfsi.o)
                0x401069c0                __fixunssfsi
 *fill*         0x40106a11        0x3 
 .text          0x40106a14      0x2f6 /opt/xtensa-lx106-elf/bin/../lib/gcc/xtensa-lx106-elf/4.8.2/libgcc.a(_addsubdf3.o)
                0x40106a34                __adddf3
                0x40106b84                __subdf3
 *fill*         0x40106d0a        0x2 
 .text          0x40106d0c      0x29b /opt/xtensa-lx106-elf/bin/../lib/gcc/xtensa-lx106-elf/4.8.2/libgcc.a(_muldf3.o)
                0x40106dec                __muldf3
 *fill*         0x40106fa7        0x1 
 .text          0x40106fa8      0x20b /opt/xtensa-lx106-elf/bin/../lib/gcc/xtensa-lx106-elf/4.8.2/libgcc.a(_divdf3.o)
                0x40107090                __divdf3
 *fill*         0x401071b3        0x1 
 .text          0x401071b4       0x48 /opt/xtensa-lx106-elf/bin/../lib/gcc/xtensa-lx106-elf/4.8.2/libgcc.a(_fixdfsi.o)
                0x401071b4                __fixdfsi
 .text          0x401071fc       0xa0 /opt/xtensa-lx106-elf/bin/../lib/gcc/xtensa-lx106-elf/4.8.2/libgcc.a(_truncdfsf2.o)
                0x401071fc                __truncdfsf2
 .text          0x4010729c       0x5e /opt/xtensa-lx106-elf/bin/../lib/gcc/xtensa-lx106-elf/4.8.2/libgcc.a(_extendsfdf2.o)
                0x4010729c                __extendsfdf2
 *fill*         0x401072fa        0x2 
 .text          0x401072fc       0x36 /opt/xtensa-lx106-elf/bin/../lib/gcc/xtensa-lx106-elf/4.8.2/libgcc.a(_muldi3.o)
                0x401072fc                __muldi3
 *fill*         0x40107332        0x2 
 .text          0x40107334       0x21 /opt/xtensa-lx106-elf/bin/../lib/gcc/xtensa-lx106-elf/4.8.2/libgcc.a(_popcountsi2.o)
                0x40107334                __popcountsi2
 *fill*         0x40107355        0x3 
 .text          0x40107358      0x3eb /opt/xtensa-lx106-elf/bin/../lib/gcc/xtensa-lx106-elf/4.8.2/libgcc.a(_divdi3.o)
                                0x41b (size before relaxing)
                0x40107358                __divdi3
 *fill*         0x40107743        0x1 
 .text          0x40107744      0x33a /opt/xtensa-lx106-elf/bin/../lib/gcc/xtensa-lx106-elf/4.8.2/libgcc.a(_umoddi3.o)
                                0x366 (size before relaxing)
                0x40107744                __umoddi3
 *fill*         0x40107a7e        0x2 
 .literal       0x40107a80        0x0 ../lib/libmain.a(xtensa_vectors.o)
 *fill*         0x40107a80        0x0 
 .literal       0x40107a80        0x0 ../lib/libmain.a(app_main.o)
 .text          0x40107a80        0x0 ../lib/libmain.a(ets_timer.o)
 *fill*         0x40107a80        0x0 
 .literal       0x40107a80        0x0 ../lib/libmain.a(misc.o)
 *fill*         0x40107a80        0x0 
 .literal       0x40107a80        0x0 ../lib/libmain.a(printf-stdarg.o)
 .literal       0x40107a80        0x0 ../lib/libmain.a(spi_flash.o)
 .text          0x40107a80        0x0 ../lib/libmain.a(uart.o)
 .literal       0x40107a80        0x0 ../lib/libmain.a(user_interface.o)
 .literal       0x40107a80        0x0 ../lib/libmain.a(os_cpu_a.o)
 *fill*         0x40107a80        0x0 
 .text          0x40107a80       0x3d ../lib/libmain.a(xtensa_context.o)
                0x40107a80                _xt_context_save
                0x40107a9c                _xt_context_restore
 .text          0x40107abd        0x0 ../lib/libmain.a(timers.o)
 *fill*         0x40107abd        0x3 
 .literal       0x40107ac0        0x0 ../lib/libfreertos.a(heap_4.o)
 *fill*         0x40107ac0        0x0 
 .literal       0x40107ac0        0x0 ../lib/libfreertos.a(port.o)
 *fill*         0x40107ac0        0x0 
 .literal       0x40107ac0        0x0 ../lib/libfreertos.a(queue.o)
 *fill*         0x40107ac0        0x0 
 .literal       0x40107ac0        0x0 ../lib/libfreertos.a(tasks.o)
 .text          0x40107ac0        0x0 ../lib/libfreertos.a(timers.o)
 *fill*         0x40107ac0        0x0 
 .literal       0x40107ac0        0x0 ../lib/libfreertos.a(list.o)
 .text          0x40107ac0       0x37 ../lib/libfreertos.a(list.o)
                0x40107ac0                vListInsertEnd
                0x40107ad8                uxListRemove
 .text          0x40107af7        0x0 ../lib/liblwip.a(dhcp.o)
 .text          0x40107af7        0x0 ../lib/liblwip.a(dns.o)
 .text          0x40107af7        0x0 ../lib/liblwip.a(etharp.o)
 .text          0x40107af7        0x0 ../lib/liblwip.a(ip4_addr.o)
 .text          0x40107af7        0x0 ../lib/liblwip.a(ip4.o)
 .text          0x40107af7        0x0 ../lib/liblwip.a(ip_frag.o)
 .text          0x40107af7        0x0 ../lib/liblwip.a(memp.o)
 .text          0x40107af7        0x0 ../lib/liblwip.a(netif.o)
 .text          0x40107af7        0x0 ../lib/liblwip.a(pbuf.o)
 .text          0x40107af7        0x0 ../lib/liblwip.a(raw.o)
 .text          0x40107af7        0x0 ../lib/liblwip.a(stats.o)
 .text          0x40107af7        0x0 ../lib/liblwip.a(sys_arch.o)
 .text          0x40107af7        0x0 ../lib/liblwip.a(tcp_in.o)
 .text          0x40107af7        0x0 ../lib/liblwip.a(tcpip.o)
 .text          0x40107af7        0x0 ../lib/liblwip.a(tcp.o)
 .text          0x40107af7        0x0 ../lib/liblwip.a(tcp_out.o)
 .text          0x40107af7        0x0 ../lib/liblwip.a(timers.o)
 .text          0x40107af7        0x0 ../lib/liblwip.a(udp.o)
 .text          0x40107af7        0x0 ../lib/liblwip.a(icmp.o)
 .text          0x40107af7        0x0 ../lib/liblwip.a(inet_chksum.o)
 .text          0x40107af7        0x0 ../lib/liblwip.a(init.o)
 .text          0x40107af7        0x0 ../lib/liblwip.a(sockets.o)
 .text          0x40107af7        0x0 ../lib/liblwip.a(api_lib.o)
 .text          0x40107af7        0x0 ../lib/liblwip.a(api_msg.o)
 *fill*         0x40107af7        0x1 
 .literal       0x40107af8        0x0 ../lib/liblwip.a(netbuf.o)
 .text          0x40107af8        0x0 user/.output/eagle/debug/lib/libuser.a(user_main.o)
 *fill*         0x40107af8        0x0 
 .literal       0x40107af8        0x0 user/.output/eagle/debug/lib/libuser.a(util-logtrace.o)
 *fill*         0x40107af8        0x0 
 .literal       0x40107af8        0x0 user/.output/eagle/debug/lib/libuser.a(util-terminal.o)
 *fill*         0x40107af8        0x0 
 .literal       0x40107af8        0x0 user/.output/eagle/debug/lib/libuser.a(util-task.o)
 .text          0x40107af8        0x0 user/.output/eagle/debug/lib/libuser.a(task-af.o)
 *fill*         0x40107af8        0x0 
 .literal       0x40107af8        0x0 user/.output/eagle/debug/lib/libuser.a(http-protocol.o)
 .text          0x40107af8        0x8 user/.output/eagle/debug/lib/libuser.a(http-protocol.o)
 .text          0x40107b00        0x0 user/.output/eagle/debug/lib/libuser.a(af-interface.o)
 .text          0x40107b00        0x0 user/.output/eagle/debug/lib/libuser.a(af-buffer.o)
 .text          0x40107b00        0x0 user/.output/eagle/debug/lib/libuser.a(tcp-socket.o)
 .literal       0x40107b00        0x0 ../../codec-mpeg/.output/eagle/debug/lib/libcodec-mpeg.a(codec-mpeg.o)
 .text          0x40107b00        0x0 ../../codec-mpeg/.output/eagle/debug/lib/libcodec-mpeg.a(frame.o)
 .text          0x40107b00        0x0 ../../codec-mpeg/.output/eagle/debug/lib/libcodec-mpeg.a(layer3.o)
 .text          0x40107b00        0x0 ../../codec-mpeg/.output/eagle/debug/lib/libcodec-mpeg.a(stream.o)
 *fill*         0x40107b00        0x0 
 .literal       0x40107b00        0x0 ../../codec-mpeg/.output/eagle/debug/lib/libcodec-mpeg.a(synth_stereo.o)
 *fill*         0x40107b00        0x0 
 .literal       0x40107b00        0x0 ../../codec-mpeg/.output/eagle/debug/lib/libcodec-mpeg.a(timer.o)
 .literal       0x40107b00        0x0 ../../codec-mpeg/.output/eagle/debug/lib/libcodec-mpeg.a(align.o)
 .text          0x40107b00       0x3f ../../codec-mpeg/.output/eagle/debug/lib/libcodec-mpeg.a(align.o)
                0x40107b00                unalChar
                0x40107b28                unalShort
 *fill*         0x40107b3f        0x1 
 .literal       0x40107b40        0x0 ../../codec-mpeg/.output/eagle/debug/lib/libcodec-mpeg.a(bit.o)
 .text          0x40107b40        0x0 ../../codec-mpeg/.output/eagle/debug/lib/libcodec-mpeg.a(huffman.o)
 .text          0x40107b40        0x0 ../../adif-esp-i2s-dsm/.output/eagle/debug/lib/libadif-esp-i2s-dsm.a(adif-esp-i2s-dsm.o)
 *fill*         0x40107b40        0x0 
 .literal       0x40107b40        0x0 driver/.output/eagle/debug/lib/libdriver.a(i2s_freertos.o)
 *fill*         0x40107b40        0x0 
 .literal       0x40107b40        0x0 driver/.output/eagle/debug/lib/libdriver.a(uart.o)
 *fill*         0x40107b40        0x0 
 .text          0x40107b40       0x64 /opt/xtensa-lx106-elf/bin/../lib/gcc/xtensa-lx106-elf/4.8.2/libgcc.a(_divsi3.o)
                0x40107b40                __divsi3
 .text          0x40107ba4       0x49 /opt/xtensa-lx106-elf/bin/../lib/gcc/xtensa-lx106-elf/4.8.2/libgcc.a(_modsi3.o)
                0x40107ba4                __modsi3
 *fill*         0x40107bed        0x3 
 .text          0x40107bf0       0x4c /opt/xtensa-lx106-elf/bin/../lib/gcc/xtensa-lx106-elf/4.8.2/libgcc.a(_udivsi3.o)
                0x40107bf0                __udivsi3
 .text          0x40107c3c       0x39 /opt/xtensa-lx106-elf/bin/../lib/gcc/xtensa-lx106-elf/4.8.2/libgcc.a(_umodsi3.o)
                0x40107c3c                __umodsi3
 *fill*         0x40107c75        0x3 
 .text          0x40107c78       0x20 /opt/xtensa-lx106-elf/bin/../lib/gcc/xtensa-lx106-elf/4.8.2/libhal.a(clock.o)
                0x40107c78                xthal_get_ccount
                0x40107c80                xthal_set_ccompare
                0x40107c8c                xthal_get_ccompare
 .text          0x40107c98        0x5 /opt/xtensa-lx106-elf/bin/../lib/gcc/xtensa-lx106-elf/4.8.2/libhal.a(int_asm--set_intset.o)
                0x40107c98                xthal_set_intset
 *fill*         0x40107c9d        0x3 
 .literal       0x40107ca0        0x0 ../lib/libphy.a(phy.o)
 .text          0x40107ca0        0x0 ../lib/libphy.a(phy_chip_v5_ana_romfunc.o)
 *fill*         0x40107ca0        0x0 
 .literal       0x40107ca0        0x0 ../lib/libphy.a(phy_chip_v5_romfunc.o)
 .text          0x40107ca0        0x0 ../lib/libphy.a(phy_chip_v6_ana.o)
 *fill*         0x40107ca0        0x0 
 .literal       0x40107ca0        0x0 ../lib/libphy.a(phy_chip_v6.o)
 .text          0x40107ca0        0x2 ../lib/libphy.a(phy_chip_v6.o)
                0x40107ca0                ram_tx_mac_disable
 *fill*         0x40107ca2        0x2 
 .literal       0x40107ca4        0x0 ../lib/libphy.a(phy_chip_v6_cal.o)
 .text          0x40107ca4        0x0 ../lib/libphy.a(phy_chip_v6_unused.o)
 *fill*         0x40107ca4        0x0 
 .literal       0x40107ca4        0x0 ../lib/libphy.a(phy_sleep.o)
 .text          0x40107ca4        0x0 ../lib/libphy.a(phy_chip_v5_cal_romfunc.o)
 *fill*         0x40107ca4        0x0 
 .literal       0x40107ca4        0x0 ../lib/libpp.a(lmac.o)
 .text          0x40107ca4        0x0 ../lib/libpp.a(pm.o)
 .literal       0x40107ca4        0x0 ../lib/libpp.a(pp.o)
 .literal       0x40107ca4        0x0 ../lib/libpp.a(rate_control.o)
 *fill*         0x40107ca4        0x0 
 .literal       0x40107ca4        0x0 ../lib/libpp.a(trc.o)
 *fill*         0x40107ca4        0x0 
 .literal       0x40107ca4        0x0 ../lib/libpp.a(wdev.o)
 *fill*         0x40107ca4        0x0 
 .literal       0x40107ca4        0x0 ../lib/libpp.a(esf_buf.o)
 .text          0x40107ca4        0x0 ../lib/libpp.a(if_hwctrl.o)
 .text          0x40107ca4        0x0 ../lib/libnet80211.a(ieee80211.o)
 .text          0x40107ca4        0x0 ../lib/libnet80211.a(ieee80211_crypto.o)
 .text          0x40107ca4        0x0 ../lib/libnet80211.a(ieee80211_ets.o)
 .literal       0x40107ca4        0x0 ../lib/libnet80211.a(ieee80211_hostap.o)
 .text          0x40107ca4       0x25 ../lib/libnet80211.a(ieee80211_hostap.o)
 .text          0x40107cc9        0x0 ../lib/libnet80211.a(ieee80211_ht.o)
 .text          0x40107cc9        0x0 ../lib/libnet80211.a(ieee80211_input.o)
 .text          0x40107cc9        0x0 ../lib/libnet80211.a(ieee80211_output.o)
 .text          0x40107cc9        0x0 ../lib/libnet80211.a(ieee80211_phy.o)
 .text          0x40107cc9        0x0 ../lib/libnet80211.a(ieee80211_power.o)
 .text          0x40107cc9        0x0 ../lib/libnet80211.a(ieee80211_proto.o)
 .text          0x40107cc9        0x0 ../lib/libnet80211.a(ieee80211_scan.o)
 .text          0x40107cc9        0x0 ../lib/libnet80211.a(ieee80211_sta.o)
 *fill*         0x40107cc9        0x3 
 .literal       0x40107ccc        0x0 ../lib/libnet80211.a(wl_chm.o)
 .text          0x40107ccc        0x0 ../lib/libnet80211.a(wl_cnx.o)
 .text          0x40107ccc        0x0 ../lib/libnet80211.a(ieee80211_action.o)
 .text          0x40107ccc        0x0 ../lib/libwpa.a(ap_config.o)
 .text          0x40107ccc        0x0 ../lib/libwpa.a(common.o)
 .text          0x40107ccc        0x0 ../lib/libwpa.a(os_xtensa.o)
 .text          0x40107ccc        0x0 ../lib/libwpa.a(sha1-pbkdf2.o)
 *fill*         0x40107ccc        0x0 
 .literal       0x40107ccc        0x0 ../lib/libwpa.a(wpa_auth.o)
 .text          0x40107ccc       0x11 ../lib/libwpa.a(wpa_auth.o)
 .text          0x40107cdd        0x0 ../lib/libwpa.a(wpa_auth_ie.o)
 .text          0x40107cdd        0x0 ../lib/libwpa.a(wpa.o)
 .text          0x40107cdd        0x0 ../lib/libwpa.a(wpa_common.o)
 .text          0x40107cdd        0x0 ../lib/libwpa.a(wpa_debug.o)
 .text          0x40107cdd        0x0 ../lib/libwpa.a(wpa_ie.o)
 .text          0x40107cdd        0x0 ../lib/libwpa.a(wpa_main.o)
 .text          0x40107cdd        0x0 ../lib/libwpa.a(wpas_glue.o)
 .text          0x40107cdd        0x0 ../lib/libwpa.a(aes-unwrap.o)
 .text          0x40107cdd        0x0 ../lib/libwpa.a(aes-wrap.o)
 .text          0x40107cdd        0x0 ../lib/libwpa.a(md5.o)
 .text          0x40107cdd        0x0 ../lib/libwpa.a(md5-internal.o)
 .text          0x40107cdd        0x0 ../lib/libwpa.a(rc4.o)
 .text          0x40107cdd        0x0 ../lib/libwpa.a(sha1.o)
 .text          0x40107cdd        0x0 ../lib/libwpa.a(sha1-internal.o)
 .text          0x40107cdd        0x0 ../lib/libwpa.a(aes-internal-dec.o)
 .text          0x40107cdd        0x0 ../lib/libwpa.a(aes-internal-enc.o)
 .text          0x40107cdd        0x0 ../lib/libwpa.a(aes-internal.o)
 *fill*         0x40107cdd        0x3 
 .literal       0x40107ce0        0x0 ../lib/libmain.a(libc.o)
 .text          0x40107ce0        0x0 ../lib/liblwip.a(ethernetif.o)
 .text          0x40107ce0        0x0 ../lib/liblwip.a(netdb.o)
 *fill*         0x40107ce0        0x0 
 .text          0x40107ce0       0x18 /opt/xtensa-lx106-elf/bin/../lib/gcc/xtensa-lx106-elf/4.8.2/libgcc.a(_ashrdi3.o)
                0x40107ce0                __ashrdi3
 *fill*         0x40107cf8        0x0 
 *fill*         0x40107cf8        0x0 
 *fill*         0x40107cf8        0x0 
 *fill*         0x40107cf8        0x0 
 .text          0x40107cf8       0x44 /opt/xtensa-lx106-elf/bin/../lib/gcc/xtensa-lx106-elf/4.8.2/libgcc.a(_floatsisf.o)
                0x40107cf8                __floatunsisf
                0x40107d00                __floatsisf
 *fill*         0x40107d3c        0x0 
 *fill*         0x40107d3c        0x0 
 *fill*         0x40107d3c        0x0 
 .text          0x40107d3c       0x36 /opt/xtensa-lx106-elf/bin/../lib/gcc/xtensa-lx106-elf/4.8.2/libgcc.a(_floatsidf.o)
                0x40107d3c                __floatunsidf
                0x40107d44                __floatsidf
 *fill*         0x40107d72        0x0 
 *fill*         0x40107d72        0x0 
 *fill*         0x40107d72        0x0 
 *fill*         0x40107d72        0x0 
 *fill*         0x40107d72        0x0 
 *fill*         0x40107d72        0x2 
 .text          0x40107d74       0x48 /opt/xtensa-lx106-elf/bin/../lib/gcc/xtensa-lx106-elf/4.8.2/libgcc.a(_umulsidi3.o)
                0x40107d74                __umulsidi3
 .text          0x40107dbc        0x0 /opt/xtensa-lx106-elf/bin/../lib/gcc/xtensa-lx106-elf/4.8.2/libgcc.a(_popcount_tab.o)
 .text          0x40107dbc        0x0 ../lib/libnet80211.a(ieee80211_crypto_ccmp.o)
 .text          0x40107dbc        0x0 ../lib/libnet80211.a(ieee80211_crypto_tkip.o)
 .text          0x40107dbc        0x0 ../lib/libnet80211.a(ieee80211_crypto_wep.o)
 *(.fini.literal)
 *(.fini)
 *(.gnu.version)
                0x40107dbc                _text_end = ABSOLUTE (.)
                0x40107dbc                _etext = .

.UserEnter.literal
                0x40107dbc        0x0
 .UserEnter.literal
                0x40107dbc        0x0 ../lib/libmain.a(xtensa_vectors.o)

.DebugExceptionVector.literal
                0x40107dbc        0x0
 .DebugExceptionVector.literal
                0x40107dbc        0x0 ../lib/libmain.a(xtensa_vectors.o)

.DoubleExceptionVector.literal
                0x40107dbc        0x0
 .DoubleExceptionVector.literal
                0x40107dbc        0x0 ../lib/libmain.a(xtensa_vectors.o)

.KernelExceptionVector.literal
                0x40107dbc        0x0
 .KernelExceptionVector.literal
                0x40107dbc        0x0 ../lib/libmain.a(xtensa_vectors.o)

.NMIExceptionVector.literal
                0x40107dbc        0x0
 .NMIExceptionVector.literal
                0x40107dbc        0x0 ../lib/libmain.a(xtensa_vectors.o)

.lit4           0x40107dbc        0x0
                0x40107dbc                _lit4_start = ABSOLUTE (.)
 *(*.lit4)
 *(.lit4.*)
 *(.gnu.linkonce.lit4.*)
                0x40107dbc                _lit4_end = ABSOLUTE (.)

.irom0.text     0x40201010    0x408c0
                0x40201010                _irom0_text_start = ABSOLUTE (.)
 *(.irom0.literal .irom.literal .irom.text.literal .irom0.text .irom.text)
 .irom0.text    0x40201010      0x68a ../lib/libmain.a(app_main.o)
                                0x7ca (size before relaxing)
                0x402012e0                uart_rx_one_char
                0x40201308                wdt_init
                0x402013b0                user_init_task
 *fill*         0x4020169a        0x2 
 .irom0.text    0x4020169c      0x42f ../lib/libmain.a(ets_timer.o)
                                0x4cf (size before relaxing)
                0x4020177c                ets_timer_setfn
                0x402017ec                ets_timer_disarm
                0x40201848                ets_timer_arm_ms_us
                0x402018cc                ets_timer_arm_us
                0x402018e0                ets_timer_arm
                0x402018f4                ets_timer_done
                0x40201920                ets_timer_handler_isr
                0x40201a40                ets_timer_init
 *fill*         0x40201acb        0x1 
 .irom0.text    0x40201acc       0xd4 ../lib/libmain.a(misc.o)
                                 0xe4 (size before relaxing)
                0x40201ad4                os_delay_us
                0x40201ad4                ets_delay_us
                0x40201b08                os_update_cpu_frequency
                0x40201b08                ets_update_cpu_frequency
                0x40201b14                os_install_putc1
                0x40201b1c                os_putc
                0x40201b34                gpio_output_set
                0x40201b58                rtc_get_reset_reason
 .irom0.text    0x40201ba0       0x4a ../lib/libmain.a(uart.o)
                                 0x4e (size before relaxing)
                0x40201ba0                uart_buff_switch
                0x40201bb0                uart_div_modify
                0x40201be8                Uart_Init
 *fill*         0x40201bea        0x2 
 .irom0.text    0x40201bec     0x2051 ../lib/libmain.a(user_interface.o)
                               0x25fd (size before relaxing)
                0x40201d8c                system_pp_recycle_rx_pkt
                0x40201da0                system_adc_read
                0x40201dc4                system_restart
                0x40201e18                system_restore
                0x40201e60                system_get_boot_version
                0x40201e98                system_get_test_result
                0x40201ec0                system_get_userbin_addr
                0x40201f44                system_get_boot_mode
                0x40201f70                system_restart_enhance
                0x40202048                system_upgrade_userbin_set
                0x40202090                system_upgrade_userbin_check
                0x402020cc                system_upgrade_flag_set
                0x402020e0                system_upgrade_flag_check
                0x402020f4                system_upgrade_reboot
                0x40202378                system_deep_sleep
                0x402023b8                system_update_cpu_freq
                0x40202414                system_get_cpu_freq
                0x4020242c                system_overclock
                0x40202458                system_restoreclock
                0x40202490                system_get_time
                0x402024a4                system_relative_time
                0x402024bc                system_station_got_ip_set
                0x40202578                system_print_meminfo
                0x402025e8                system_get_free_heap_size
                0x40202600                system_get_chip_id
                0x40202624                system_rtc_clock_cali_proc
                0x40202638                system_get_rtc_time
                0x40202644                system_get_rst_info
                0x40202670                wifi_station_dhcpc_start
                0x402026c8                wifi_station_dhcpc_stop
                0x40202708                wifi_station_dhcpc_status
                0x40202748                wifi_get_opmode
                0x4020275c                wifi_get_opmode_default
                0x402027e4                wifi_set_opmode_local
                0x4020283c                wifi_set_opmode
                0x40202850                wifi_set_opmode_current
                0x40202864                system_get_checksum
                0x40202920                wifi_param_save_protect
                0x40202ab4                wifi_station_get_config
                0x40202ac8                wifi_station_get_config_default
                0x40202ae8                wifi_station_get_ap_info
                0x40202ba4                wifi_station_ap_number_set
                0x40202e14                wifi_station_set_config
                0x40202e28                wifi_station_set_config_current
                0x40202e3c                wifi_station_get_current_ap_id
                0x40202e50                wifi_station_ap_check
                0x40202e88                wifi_station_ap_change
                0x40202f6c                wifi_station_scan
                0x40202fb0                wifi_station_get_auto_connect
                0x40202fc4                wifi_station_set_auto_connect
                0x40202ffc                wifi_station_connect
                0x40203084                wifi_station_disconnect
                0x402030e4                wifi_station_get_connect_status
                0x40203114                wifi_softap_cacl_mac
                0x40203188                wifi_softap_set_default_ssid
                0x4020330c                wifi_softap_get_config
                0x40203320                wifi_softap_get_config_default
                0x40203560                wifi_softap_set_config
                0x40203574                wifi_softap_set_config_current
                0x40203588                wifi_softap_set_station_info
                0x402035ec                wifi_softap_get_station_info
                0x4020367c                wifi_softap_free_station_info
                0x402036b4                wifi_softap_deauth
                0x40203768                wifi_get_phy_mode
                0x40203770                wifi_set_phy_mode
                0x402037f8                wifi_set_sleep_type
                0x40203818                wifi_get_sleep_type
                0x40203820                wifi_get_channel
                0x40203838                wifi_set_channel
                0x40203868                wifi_promiscuous_set_mac
                0x402038b4                wifi_promiscuous_enable
                0x40203960                wifi_set_promiscuous_rx_cb
                0x40203968                wifi_get_ip_info
                0x402039dc                wifi_set_ip_info
                0x40203a84                wifi_get_macaddr
                0x40203ae0                wifi_set_macaddr
                0x40203b90                wifi_status_led_install
                0x40203bc4                system_uart_swap
                0x40203c38                system_get_sdk_version
 *fill*         0x40203c3d        0x3 
 .irom0.text    0x40203c40      0x181 ../lib/libmain.a(timers.o)
                                0x1c1 (size before relaxing)
                0x40203c48                os_timer_setfn
                0x40203cf4                os_timer_arm
                0x40203d98                os_timer_disarm
 *fill*         0x40203dc1        0x3 
 .irom0.text    0x40203dc4       0x8d ../lib/libfreertos.a(port.o)
                                 0x9d (size before relaxing)
                0x40203dc8                pxPortInitialiseStack
                0x40203e08                xPortStartScheduler
                0x40203e48                vPortEndScheduler
                0x40203e4c                ResetCcountVal
 *fill*         0x40203e51        0x3 
 .irom0.text    0x40203e54      0x58f ../lib/libfreertos.a(queue.o)
                                0x703 (size before relaxing)
                0x40203e58                xQueueGenericReset
                0x40203ee4                xQueueGenericCreate
                0x40203f44                xQueueCreateMutex
                0x40203fa4                xQueueGenericSend
                0x402040bc                xQueueGenericReceive
                0x4020421c                uxQueueMessagesWaiting
                0x40204244                vQueueDelete
                0x4020438c                vQueueWaitForMessageRestricted
 *fill*         0x402043e3        0x1 
 .irom0.text    0x402043e4      0xbfe ../lib/libfreertos.a(tasks.o)
                                0xe86 (size before relaxing)
                0x402043f0                xTaskGenericCreate
                0x402044f4                vTaskDelete
                0x4020456c                vTaskDelayUntil
                0x402045dc                vTaskDelay
                0x40204624                uxTaskPriorityGet
                0x40204650                vTaskPrioritySet
                0x40204724                vTaskSuspend
                0x402047a8                xTaskIsTaskSuspended
                0x402047cc                vTaskResume
                0x4020484c                xTaskResumeFromISR
                0x402048e0                vTaskStartScheduler
                0x40204944                vTaskEndScheduler
                0x40204968                vTaskSuspendAll
                0x40204980                prvGetExpectedIdleTime
                0x402049b0                xTaskResumeAll
                0x40204aac                xTaskGetTickCount
                0x40204ad4                xTaskGetTickCountFromISR
                0x40204ae0                uxTaskGetNumberOfTasks
                0x40204aec                xTaskGetIdleTaskHandle
                0x40204af4                vTaskStepTick
                0x40204b08                vTaskPlaceOnEventList
                0x40204b64                vTaskPlaceOnEventListRestricted
                0x40204ba8                xTaskRemoveFromEventList
                0x40204c28                vTaskSetTimeOutState
                0x40204c3c                xTaskCheckForTimeOut
                0x40204c98                vTaskMissedYield
                0x40204ccc                eTaskConfirmSleepModeStatus
                0x40204ef4                uxTaskGetStackHighWaterMark
                0x40204f34                xTaskGetCurrentTaskHandle
                0x40204f40                xTaskGetSchedulerState
                0x40204f60                vTaskPriorityInherit
 *fill*         0x40204fe2        0x2 
 .irom0.text    0x40204fe4      0x410 ../lib/libfreertos.a(timers.o)
                                0x4ec (size before relaxing)
                0x40204ff4                xTimerCreateTimerTask
                0x40205044                xTimerCreate
                0x40205098                xTimerGenericCommand
                0x402050f4                xTimerGetTimerDaemonTaskHandle
                0x402053c4                xTimerIsTimerActive
                0x402053f0                pvTimerGetTimerID
 .irom0.text    0x402053f4     0x1242 ../lib/liblwip.a(dhcp.o)
                               0x14aa (size before relaxing)
                0x40205608                dhcp_coarse_tmr
                0x40205650                dhcp_fine_tmr
                0x4020587c                dhcp_set_struct
                0x402058a0                dhcp_cleanup
                0x402058c4                dhcp_start
                0x40205974                dhcp_inform
                0x40205a1c                dhcp_network_changed
                0x40205a64                dhcp_arp_reply
                0x40205ce8                dhcp_renew
                0x40205eec                dhcp_release
                0x40205fac                dhcp_stop
 *fill*         0x40206636        0x2 
 .irom0.text    0x40206638      0x603 ../lib/liblwip.a(dns.o)
                                0x6b7 (size before relaxing)
                0x40206644                dns_init
                0x40206698                dns_setserver
                0x402066c4                dns_getserver
                0x402066d8                dns_tmr
                0x40206bd8                dns_gethostbyname
 *fill*         0x40206c3b        0x1 
 .irom0.text    0x40206c3c      0x92a ../lib/liblwip.a(etharp.o)
                                0xa32 (size before relaxing)
                0x40206c9c                etharp_tmr
                0x40206ec0                etharp_cleanup_netif
                0x40206efc                etharp_find_addr
                0x40207120                etharp_output
                0x4020724c                etharp_query
                0x4020747c                etharp_request
                0x402074a0                ethernet_input
 *fill*         0x40207566        0x2 
 .irom0.text    0x40207568      0x2d0 ../lib/liblwip.a(ip4_addr.o)
                                0x2e0 (size before relaxing)
                0x40207568                ip4_addr_isbroadcast
                0x40207598                ip4_addr_netmask_valid
                0x402075dc                ipaddr_addr
                0x402075f8                ipaddr_aton
                0x4020775c                ipaddr_ntoa
                0x40207774                ipaddr_ntoa_r
 .irom0.text    0x40207838      0x4ec ../lib/liblwip.a(ip4.o)
                                0x598 (size before relaxing)
                0x4020783c                ip_route
                0x402078b4                ip_input
                0x40207b5c                ip_output_if
                0x40207ce0                ip_output
 .irom0.text    0x40207d24      0x15f ../lib/liblwip.a(ip_frag.o)
                                0x18f (size before relaxing)
                0x40207d28                ip_frag
 *fill*         0x40207e83        0x1 
 .irom0.text    0x40207e84      0x24d ../lib/liblwip.a(netif.o)
                                0x275 (size before relaxing)
                0x40207e84                netif_init
                0x40207e8c                netif_add
                0x40207ee4                netif_set_addr
                0x40207f0c                netif_remove
                0x40207f58                netif_find
                0x40207f98                netif_set_ipaddr
                0x40208000                netif_set_gw
                0x40208010                netif_set_netmask
                0x40208020                netif_set_default
                0x40208028                netif_set_up
                0x40208060                netif_set_down
                0x40208084                netif_set_link_up
                0x402080c0                netif_set_link_down
 *fill*         0x402080d1        0x3 
 .irom0.text    0x402080d4      0x6ee ../lib/liblwip.a(pbuf.o)
                                0x78e (size before relaxing)
                0x4020817c                pbuf_alloc
                0x402082cc                pbuf_realloc
                0x40208314                pbuf_header
                0x40208380                pbuf_free
                0x40208400                pbuf_clen
                0x40208418                pbuf_ref
                0x4020843c                pbuf_cat
                0x40208468                pbuf_chain
                0x40208484                pbuf_dechain
                0x402084c0                pbuf_copy
                0x40208568                pbuf_copy_partial
                0x402085f0                pbuf_take
                0x40208654                pbuf_coalesce
                0x40208688                pbuf_get_at
                0x402086b0                pbuf_memcmp
                0x40208724                pbuf_memfind
                0x40208778                pbuf_strstr
 *fill*         0x402087c2        0x2 
 .irom0.text    0x402087c4      0x1df ../lib/liblwip.a(raw.o)
                                0x22f (size before relaxing)
                0x402087cc                raw_input
                0x40208854                raw_bind
                0x40208864                raw_connect
                0x40208874                raw_recv
                0x4020887c                raw_sendto
                0x40208918                raw_send
                0x4020892c                raw_remove
                0x40208960                raw_new
 *fill*         0x402089a3        0x1 
 .irom0.text    0x402089a4      0x33f ../lib/liblwip.a(sys_arch.o)
                                0x3df (size before relaxing)
                0x402089a4                sys_init
                0x402089a8                sys_sem_new
                0x402089f0                sys_sem_free
                0x40208a04                sys_sem_signal
                0x40208a20                sys_arch_sem_wait
                0x40208a98                sys_mbox_new
                0x40208ac4                sys_mbox_free
                0x40208ae4                sys_mbox_post
                0x40208b0c                sys_mbox_trypost
                0x40208b38                sys_arch_mbox_fetch
                0x40208bbc                sys_arch_mbox_tryfetch
                0x40208be0                sys_mutex_new
                0x40208c08                sys_mutex_lock
                0x40208c2c                sys_mutex_unlock
                0x40208c48                sys_mutex_free
                0x40208c5c                sys_now
                0x40208c70                sys_thread_new
                0x40208ca4                sys_arch_protect
                0x40208cb8                sys_arch_unprotect
                0x40208cd0                sys_arch_assert
 *fill*         0x40208ce3        0x1 
 .irom0.text    0x40208ce4     0x15fd ../lib/liblwip.a(tcp_in.o)
                               0x1831 (size before relaxing)
                0x40208cf0                tcp_input
 *fill*         0x4020a2e1        0x3 
 .irom0.text    0x4020a2e4      0x37e ../lib/liblwip.a(tcpip.o)
                                0x46e (size before relaxing)
                0x4020a3a0                tcpip_input
                0x4020a3f4                tcpip_callback_with_block
                0x4020a458                tcpip_timeout
                0x4020a4a8                tcpip_untimeout
                0x4020a4f4                tcpip_apimsg
                0x4020a540                tcpip_callbackmsg_new
                0x4020a570                tcpip_callbackmsg_delete
                0x4020a584                tcpip_trycallback
                0x4020a5b8                tcpip_init
                0x4020a634                pbuf_free_callback
                0x4020a64c                mem_free_callback
 *fill*         0x4020a662        0x2 
 .irom0.text    0x4020a664      0xdb2 ../lib/liblwip.a(tcp.o)
                                0xf2a (size before relaxing)
                0x4020a664                tcp_init
                0x4020a66c                tcp_tmr
                0x4020a7f8                tcp_close
                0x4020a81c                tcp_shutdown
                0x4020a888                tcp_abandon
                0x4020a924                tcp_abort
                0x4020a93c                tcp_bind
                0x4020a9f0                tcp_listen_with_backlog
                0x4020aac8                tcp_update_rcv_ann_wnd
                0x4020ab04                tcp_recved
                0x4020aba8                tcp_connect
                0x4020acf0                tcp_slowtmr
                0x4020afbc                tcp_fasttmr
                0x4020b030                tcp_process_refused_data
                0x4020b0b4                tcp_segs_free
                0x4020b0d0                tcp_seg_free
                0x4020b0f8                tcp_setprio
                0x4020b100                tcp_seg_copy
                0x4020b140                tcp_recv_null
                0x4020b1f8                tcp_alloc
                0x4020b2cc                tcp_new
                0x4020b2e0                tcp_arg
                0x4020b2e4                tcp_recv
                0x4020b2ec                tcp_sent
                0x4020b2f4                tcp_err
                0x4020b2fc                tcp_accept
                0x4020b300                tcp_poll
                0x4020b308                tcp_pcb_purge
                0x4020b35c                tcp_pcb_remove
                0x4020b3c4                tcp_next_iss
                0x4020b3d4                tcp_eff_send_mss_impl
                0x4020b40c                tcp_debug_state_str
 *fill*         0x4020b416        0x2 
 .irom0.text    0x4020b418     0x102f ../lib/liblwip.a(tcp_out.o)
                               0x1187 (size before relaxing)
                0x4020b518                tcp_send_fin
                0x4020b724                tcp_write
                0x4020ba84                tcp_enqueue_flags
                0x4020bb88                tcp_send_empty_ack
                0x4020bc18                tcp_output
                0x4020c058                tcp_rst_impl
                0x4020c188                tcp_rexmit_rto
                0x4020c1c0                tcp_rexmit
                0x4020c270                tcp_rexmit_fast
                0x4020c2c8                tcp_keepalive
                0x4020c354                tcp_zero_window_probe
 *fill*         0x4020c447        0x1 
 .irom0.text    0x4020c448      0x276 ../lib/liblwip.a(timers.o)
                                0x316 (size before relaxing)
                0x4020c488                tcp_timer_needed
                0x4020c53c                sys_timeouts_init
                0x4020c574                sys_timeout
                0x4020c5f0                sys_untimeout
                0x4020c63c                sys_timeouts_mbox_fetch
 *fill*         0x4020c6be        0x2 
 .irom0.text    0x4020c6c0      0x58d ../lib/liblwip.a(udp.o)
                                0x661 (size before relaxing)
                0x4020c6c0                udp_init
                0x4020c710                udp_input
                0x4020c964                udp_send
                0x4020c978                udp_sendto
                0x4020c9bc                udp_sendto_if
                0x4020caf0                udp_bind
                0x4020cb6c                udp_connect
                0x4020cbc8                udp_disconnect
                0x4020cbe0                udp_recv
                0x4020cbe8                udp_remove
                0x4020cc1c                udp_new
 *fill*         0x4020cc4d        0x3 
 .irom0.text    0x4020cc50      0x2b5 ../lib/liblwip.a(icmp.o)
                                0x355 (size before relaxing)
                0x4020cc54                icmp_input
                0x4020ce3c                icmp_dest_unreach
 *fill*         0x4020cf05        0x3 
 .irom0.text    0x4020cf08       0x24 ../lib/liblwip.a(init.o)
                                 0x5c (size before relaxing)
                0x4020cf08                lwip_init
 .irom0.text    0x4020cf2c     0x15db ../lib/liblwip.a(sockets.o)
                               0x17ef (size before relaxing)
                0x4020cf2c                lwip_socket_init
                0x4020d02c                lwip_accept
                0x4020d180                lwip_bind
                0x4020d200                lwip_close
                0x4020d24c                lwip_connect
                0x4020d2dc                lwip_listen
                0x4020d354                lwip_recvhold
                0x4020d398                lwip_recvunhold
                0x4020d424                lwip_recvfrom
                0x4020d660                lwip_read
                0x4020d678                lwip_recv
                0x4020d68c                lwip_send
                0x4020d720                lwip_sendto
                0x4020d814                lwip_socket
                0x4020d894                lwip_write
                0x4020da40                lwip_select
                0x4020de00                lwip_shutdown
                0x4020df08                lwip_getpeername
                0x4020df1c                lwip_getsockname
                0x4020df44                lwip_getsockopt
                0x4020e210                lwip_setsockopt
                0x4020e458                lwip_ioctl
                0x4020e4ac                lwip_fcntl
 *fill*         0x4020e507        0x1 
 .irom0.text    0x4020e508      0x6ed ../lib/liblwip.a(api_lib.o)
                                0x821 (size before relaxing)
                0x4020e50c                netconn_new_with_proto_and_callback
                0x4020e558                netconn_delete
                0x4020e588                netconn_getaddr
                0x4020e5e4                netconn_bind
                0x4020e638                netconn_connect
                0x4020e6a8                netconn_disconnect
                0x4020e6fc                netconn_listen_with_backlog
                0x4020e74c                netconn_accept
                0x4020e8dc                netconn_recv_tcp_pbuf
                0x4020e900                netconn_recv
                0x4020e9ac                netconn_recved
                0x4020e9dc                netconn_sendto
                0x4020ea04                netconn_send
                0x4020ea5c                netconn_write_partly
                0x4020eb5c                netconn_close
                0x4020eb70                netconn_shutdown
                0x4020eb98                netconn_gethostbyname
 *fill*         0x4020ebf5        0x3 
 .irom0.text    0x4020ebf8      0xe91 ../lib/liblwip.a(api_msg.o)
                               0x1119 (size before relaxing)
                0x4020f074                lwip_netconn_do_newconn
                0x4020f0a0                netconn_alloc
                0x4020f134                netconn_free
                0x4020f2ec                lwip_netconn_do_delconn
                0x4020f384                lwip_netconn_do_bind
                0x4020f484                lwip_netconn_do_connect
                0x4020f558                lwip_netconn_do_disconnect
                0x4020f59c                lwip_netconn_do_listen
                0x4020f658                lwip_netconn_do_send
                0x4020f6e8                lwip_netconn_do_recv
                0x4020f8c4                lwip_netconn_do_write
                0x4020f920                lwip_netconn_do_getaddr
                0x4020f9b4                lwip_netconn_do_close
                0x4020fa54                lwip_netconn_do_gethostbyname
 *fill*         0x4020fa89        0x3 
 .irom0.text    0x4020fa8c      0x15c ../lib/liblwip.a(netbuf.o)
                                0x180 (size before relaxing)
                0x4020fa8c                netbuf_delete
                0x4020fab8                netbuf_alloc
                0x4020faf4                netbuf_free
                0x4020fb18                netbuf_ref
                0x4020fb6c                netbuf_chain
                0x4020fba0                netbuf_data
                0x4020fbc4                netbuf_next
                0x4020fbe0                netbuf_first
 .irom0.text    0x4020fbe8       0xdd user/.output/eagle/debug/lib/libuser.a(user_main.o)
                                0x135 (size before relaxing)
                0x4020fc04                task_main
                0x4020fc94                user_init
 *fill*         0x4020fcc5        0x3 
 .irom0.text    0x4020fcc8       0x93 user/.output/eagle/debug/lib/libuser.a(util-logtrace.o)
                                 0x97 (size before relaxing)
                0x4020fcd8                ws_log_init
                0x4020fd00                ws_log_set_unit
                0x4020fd24                ws_log_set_level
                0x4020fd2c                ws_log_trace
                0x4020fd58                ws_panic
 *fill*         0x4020fd5b        0x1 
 .irom0.text    0x4020fd5c      0x3e1 user/.output/eagle/debug/lib/libuser.a(util-terminal.o)
                                0x40d (size before relaxing)
                0x40210014                ws_printf
                0x40210040                ws_xsprintf
                0x40210090                put_dump
 *fill*         0x4021013d        0x3 
 .irom0.text    0x40210140       0x8f user/.output/eagle/debug/lib/libuser.a(util-task.o)
                                 0xa3 (size before relaxing)
                0x40210144                util_create_task
                0x40210184                util_task_exit
                0x4021018c                util_task_yield
                0x402101a0                util_task_sleep
                0x402101bc                util_task_get_free_heap
 *fill*         0x402101cf        0x1 
 .irom0.text    0x402101d0      0x26a user/.output/eagle/debug/lib/libuser.a(task-af.o)
                                0x2fa (size before relaxing)
                0x4021037c                task_audio_open
                0x402103f8                task_audio_init
 *fill*         0x4021043a        0x2 
 .irom0.text    0x4021043c      0x6e1 user/.output/eagle/debug/lib/libuser.a(http-protocol.o)
                                0x7e5 (size before relaxing)
                0x402105b4                parse_url
                0x4021066c                http_reset
                0x402106a8                http_request
                0x402107b8                http_callbacks_init
                0x402107f8                http_read_response
 *fill*         0x40210b1d        0x3 
 .irom0.text    0x40210b20       0x8f user/.output/eagle/debug/lib/libuser.a(af-interface.o)
                0x40210b24                adif_init
                0x40210b48                adif_uninit
                0x40210b60                adif_config
                0x40210b98                adif_write
 *fill*         0x40210baf        0x1 
 .irom0.text    0x40210bb0      0x352 user/.output/eagle/debug/lib/libuser.a(af-buffer.o)
                                0x42a (size before relaxing)
                0x40210bd8                audio_buffer_init
                0x40210c3c                audio_buffer_reset
                0x40210ca0                audio_buffer_read
                0x40210d7c                audio_buffer_write
                0x40210e54                audio_buffer_fill
                0x40210e84                audio_buffer_free
                0x40210e9c                audio_buffer_size
                0x40210ea4                audio_buffer_get_overflow
                0x40210ed4                audio_buffer_get_underflow
 *fill*         0x40210f02        0x2 
 .irom0.text    0x40210f04      0x1c2 user/.output/eagle/debug/lib/libuser.a(tcp-socket.o)
                                0x24e (size before relaxing)
                0x40210f20                ws_socket_conn
                0x4021105c                ws_socket_recv
                0x40211078                ws_socket_send
                0x40211094                ws_socket_close
 *fill*         0x402110c6        0x2 
 .irom0.text    0x402110c8      0x1f6 ../../codec-mpeg/.output/eagle/debug/lib/libcodec-mpeg.a(codec-mpeg.o)
                                0x2b6 (size before relaxing)
                0x402110f0                task_mpeg_decode
                0x40211264                set_dac_sample_rate
                0x40211270                render_sample_block
 *fill*         0x402112be        0x2 
 .irom0.text    0x402112c0      0x613 ../../codec-mpeg/.output/eagle/debug/lib/libcodec-mpeg.a(frame.o)
                                0x68f (size before relaxing)
                0x40211488                mad_header_init
                0x402114b0                mad_frame_finish
                0x402114d0                mad_header_decode
                0x402117b8                mad_frame_decode
                0x40211854                mad_frame_mute
                0x402118b0                mad_frame_init
 *fill*         0x402118d3        0x1 
 .irom0.text    0x402118d4     0x2864 ../../codec-mpeg/.output/eagle/debug/lib/libcodec-mpeg.a(layer3.o)
                               0x29b0 (size before relaxing)
                0x40213c78                mad_layer_III
 .irom0.text    0x40214138      0x246 ../../codec-mpeg/.output/eagle/debug/lib/libcodec-mpeg.a(stream.o)
                                0x25a (size before relaxing)
                0x40214138                mad_stream_init
                0x40214184                mad_stream_finish
                0x40214190                mad_stream_buffer
                0x402141b4                mad_stream_skip
                0x402141bc                mad_stream_sync
                0x40214278                mad_stream_errorstr
 *fill*         0x4021437e        0x2 
 .irom0.text    0x40214380     0x13c3 ../../codec-mpeg/.output/eagle/debug/lib/libcodec-mpeg.a(synth_stereo.o)
                               0x1403 (size before relaxing)
                0x40215668                mad_synth_mute
                0x402156ac                mad_synth_init
                0x402156d8                mad_synth_frame
 *fill*         0x40215743        0x1 
 .irom0.text    0x40215744      0x81b ../../codec-mpeg/.output/eagle/debug/lib/libcodec-mpeg.a(timer.o)
                                0x923 (size before relaxing)
                0x40215834                mad_timer_compare
                0x40215864                mad_timer_negate
                0x402158b4                mad_timer_set
                0x402159f8                mad_timer_add
                0x40215a44                mad_timer_multiply
                0x40215a98                mad_timer_count
                0x40215bcc                mad_timer_fraction
                0x40215c08                mad_timer_string
 *fill*         0x40215f5f        0x1 
 .irom0.text    0x40215f60       0xd4 ../../adif-esp-i2s-dsm/.output/eagle/debug/lib/libadif-esp-i2s-dsm.a(adif-esp-i2s-dsm.o)
                                 0xe4 (size before relaxing)
                0x40215f60                adif_esp_i2s_dsm_uninit
                0x40215f64                adif_esp_i2s_dsm_init
                0x40215f78                adif_esp_i2s_dsm_config
                0x40215fa8                adif_esp_i2s_dsm_write
 .irom0.text    0x40216034      0x4c3 driver/.output/eagle/debug/lib/libdriver.a(i2s_freertos.o)
                                0x503 (size before relaxing)
                0x402160c4                i2sInit
                0x402163e0                i2sSetRate
                0x402164f0                i2sGetUnderrunCnt
 *fill*         0x402164f7        0x1 
 .irom0.text    0x402164f8      0x49b driver/.output/eagle/debug/lib/libdriver.a(uart.o)
                                0x503 (size before relaxing)
                0x402164fc                UART_SetWordLength
                0x40216524                UART_SetStopBits
                0x40216550                UART_SetLineInverse
                0x40216580                UART_SetParity
                0x402165b8                UART_SetBaudrate
                0x402165fc                UART_SetFlowCtrl
                0x402166dc                UART_WaitTxFifoEmpty
                0x402166f8                UART_ResetFifo
                0x4021672c                UART_ClearIntrStatus
                0x40216748                UART_SetIntrEna
                0x40216768                UART_intr_handler_register
                0x40216788                UART_SetPrintPort
                0x402167ac                UART_ParamConfig
                0x40216890                UART_IntrConfig
                0x40216920                uart_init_new
 *fill*         0x40216993        0x1 
 .irom0.text    0x40216994       0xfa ../lib/libphy.a(phy.o)
                                0x11e (size before relaxing)
                0x40216998                rf_init
                0x402169b4                bb_init
                0x402169cc                phy_init
                0x402169fc                RFChannelSel
                0x40216a18                phy_delete_channel
                0x40216a30                phy_enable_agc
                0x40216a48                phy_disable_agc
                0x40216a60                phy_initialize_bb
                0x40216a78                phy_set_sense
 *fill*         0x40216a8e        0x2 
 .irom0.text    0x40216a90     0x101b ../lib/libphy.a(phy_chip_v5_ana_romfunc.o)
                               0x112b (size before relaxing)
                0x40216a94                rom_ana_inf_gating_en
                0x40216c38                rom_set_channel_freq
                0x40216f7c                rom_chip_50_set_channel
                0x4021717c                rom_chip_v5_rx_init
                0x402171e8                rom_chip_v5_tx_init
                0x402172c0                rom_i2c_readReg
                0x402172f4                rom_i2c_readReg_Mask
                0x40217330                rom_i2c_writeReg
                0x40217364                rom_i2c_writeReg_Mask
                0x402173d8                rom_pbus_debugmode
                0x40217468                rom_pbus_enter_debugmode
                0x4021749c                rom_pbus_exit_debugmode
                0x402174d0                rom_pbus_force_test
                0x4021752c                rom_pbus_rd
                0x40217598                rom_pbus_set_rxgain
                0x4021765c                rom_pbus_set_txgain
                0x40217694                rom_pbus_workmode
                0x402176d4                rom_pbus_xpd_rx_off
                0x4021771c                rom_pbus_xpd_rx_on
                0x4021774c                rom_pbus_xpd_tx_off
                0x4021778c                rom_pbus_xpd_tx_on
                0x402177ec                rom_pbus_xpd_tx_on__low_gain
                0x40217850                rom_phy_reset_req
                0x40217868                rom_restart_cal
                0x402178b4                rom_rfpll_reset
                0x40217924                rom_write_rfpll_sdm
                0x402179cc                rom_rfpll_set_freq
 *fill*         0x40217aab        0x1 
 .irom0.text    0x40217aac      0x9e0 ../lib/libphy.a(phy_chip_v5_romfunc.o)
                                0xab4 (size before relaxing)
                0x40217aac                rom_abs_temp
                0x40217abc                rom_chip_v5_disable_cca
                0x40217ad8                rom_chip_v5_enable_cca
                0x40217af8                rom_chip_v5_sense_backoff
                0x40217b44                rom_dc_iq_est
                0x40217ba0                rom_en_pwdet
                0x40217c10                rom_get_bb_atten
                0x40217c38                rom_get_corr_power
                0x40217cb4                rom_get_fm_sar_dout
                0x40217d50                rom_get_noisefloor
                0x40217d6c                rom_get_power_db
                0x40217dbc                rom_iq_est_disable
                0x40217dec                rom_iq_est_enable
                0x40217e40                rom_linear_to_db
                0x40217eb8                rom_set_txclk_en
                0x40217efc                rom_set_rxclk_en
                0x40217f4c                rom_mhz2ieee
                0x40217fb4                rom_rxiq_get_mis
                0x402180e0                rom_sar_init
                0x40218134                rom_set_ana_inf_tx_scale
                0x40218170                rom_set_loopback_gain
                0x402181d8                rom_set_noise_floor
                0x40218218                rom_start_noisefloor
                0x40218258                rom_start_tx_tone
                0x40218324                rom_stop_tx_tone
                0x402183b0                rom_txtone_linear_pwr
                0x4021841c                rom_tx_mac_disable
                0x40218458                rom_tx_mac_enable
 .irom0.text    0x4021848c     0x183c ../lib/libphy.a(phy_chip_v6_ana.o)
                               0x1b0c (size before relaxing)
                0x4021848c                ram_pbus_set_rxgain
                0x40218554                ram_pbus_debugmode
                0x40218608                ram_pbus_xpd_tx_on
                0x40218674                set_rf_freq_offset
                0x402186e4                chip_v6_rxmax_ext_ana
                0x40218834                ram_chip_v6_rx_init
                0x40218860                tsen_meas
                0x40218908                readvdd33
                0x40218a98                txpwr_offset
                0x40218b58                set_txcap_reg
                0x40218bd8                ram_ana_inf_gating_en
                0x40218d38                ram_restart_cal
                0x40218da4                wait_rfpll_cal_end
                0x40218e18                ram_rfpll_set_freq
                0x40218eec                ram_set_channel_freq
                0x4021921c                chip_60_set_channel
                0x402193e4                chip_v6_set_chan_offset
                0x40219428                chip_v6_set_chan
                0x402194a0                chip_v6_set_chan_wakeup
                0x40219510                chip_v6_rf_init
                0x4021971c                low_power_set
                0x4021977c                test_tout
                0x402199bc                check_data_flag
                0x402199e0                phy_get_check_flag
                0x40219b50                phy_get_vdd33
 .irom0.text    0x40219cc8     0x38f0 ../lib/libphy.a(phy_chip_v6.o)
                               0x3fb4 (size before relaxing)
                0x40219cc8                ram_tx_mac_enable
                0x40219ccc                rtc_mem_backup
                0x40219cfc                rtc_mem_recovery
                0x40219d2c                set_cal_rxdc
                0x40219de4                set_rx_gain_cal_iq
                0x4021a140                gen_rx_gain_table
                0x4021a280                pbus_set_rxbbgain
                0x4021a2fc                set_rx_gain_testchip_50
                0x4021a614                ram_get_corr_power
                0x4021a704                check_data_func
                0x4021a720                do_noisefloor_lsleep_v50
                0x4021a754                do_noisefloor
                0x4021a7c4                start_dig_rx
                0x4021a808                stop_dig_rx
                0x4021a834                chip_v6_set_chanfreq
                0x4021a86c                tx_cap_init
                0x4021aa1c                target_power_add_backoff
                0x4021aa68                tx_pwctrl_init_cal
                0x4021abd0                tx_atten_set_interp
                0x4021ae48                tx_pwctrl_init
                0x4021af44                ram_get_noisefloor
                0x4021af60                get_noisefloor_sat
                0x4021af90                ram_set_noise_floor
                0x4021afe4                ram_start_noisefloor
                0x4021b02c                read_hw_noisefloor
                0x4021b058                noise_check_loop
                0x4021b1c0                noise_init
                0x4021b3c0                target_power_backoff
                0x4021b414                sdt_on_noise_start
                0x4021b498                chip_v6_set_chan_rx_cmp
                0x4021b620                chip_v6_set_chan_misc
                0x4021b68c                phy_dig_spur_set
                0x4021b9ec                phy_dig_spur_prot
                0x4021bc24                chip_v6_rxmax_ext_dig
                0x4021bc70                chip_v6_rxmax_ext
                0x4021bd1c                phy_bb_rx_cfg
                0x4021c124                uart_wait_idle
                0x4021c154                phy_pbus_soc_cfg
                0x4021c214                phy_gpio_cfg
                0x4021c54c                tx_cont_en
                0x4021c5f0                tx_cont_dis
                0x4021c644                tx_cont_cfg
                0x4021c668                chip_v6_initialize_bb
                0x4021c7d8                periodic_cal
                0x4021c8ec                bbpll_cal
                0x4021c978                periodic_cal_top
                0x4021c9d8                register_chipv6_phy_init_param
                0x4021cc78                change_bbpll160_sleep
                0x4021cd68                change_bbpll160
                0x4021cd98                set_crystal_uart
                0x4021ce08                ant_switch_init
                0x4021ceb4                reduce_current_init
                0x4021cf1c                rtc_mem_check
                0x4021cf54                phy_afterwake_set_rfoption
                0x4021cf80                deep_sleep_set_option
                0x4021cff8                register_chipv6_phy
                0x4021d2b4                set_dpd_bypass
                0x4021d30c                set_rf_gain_stage10
                0x4021d33c                get_vdd33_offset
                0x4021d3b0                get_phy_target_power
                0x4021d460                set_most_pwr_reg
                0x4021d534                phy_set_most_tpw
                0x4021d558                phy_vdd33_set_tpw
                0x4021d570                get_adc_rand
                0x4021d5a4                phy_get_rand
 .irom0.text    0x4021d5b8     0x2134 ../lib/libphy.a(phy_chip_v6_cal.o)
                               0x2388 (size before relaxing)
                0x4021d5b8                txbbgain2dcoindex
                0x4021d5d8                dcoindex2txbbgain
                0x4021d5f8                init_cal_dcoffset
                0x4021d6bc                set_rfanagain_dc_reg
                0x4021d758                set_txdc_pbus
                0x4021d7c4                get_rf_gain_qdb
                0x4021d7ec                correct_rf_ana_gain
                0x4021d8f4                get_sar_dout
                0x4021d98c                cal_rf_ana_gain
                0x4021da64                meas_tone_pwr_db
                0x4021dad4                tx_pwr_backoff
                0x4021dc20                get_fcc_1m2m_pwr_offset
                0x4021dc5c                ram_set_txbb_atten
                0x4021dcec                txiq_get_mis_pwr
                0x4021dd90                txiq_cover
                0x4021dfa8                ram_rfcal_txiq
                0x4021e214                rc_cal
                0x4021e3d4                get_target_power_offset
                0x4021e4dc                get_pwctrl_correct
                0x4021e534                tx_pwctrl_cal
                0x4021e874                tx_pwctrl_bg_init
                0x4021e8f0                tx_pwctrl_background
                0x4021e9a8                read_sar_dout
                0x4021ea0c                ram_get_fm_sar_dout
                0x4021eab0                ram_cal_tos_v60
                0x4021ec90                ram_get_bb_atten
                0x4021ecc0                ram_rfcal_txcap
                0x4021ee84                ram_rfcal_pwrctrl
                0x4021f0ac                ram_rxiq_get_mis
                0x4021f278                ram_rxiq_cover_mg_mp
                0x4021f41c                ram_rfcal_rxiq
                0x4021f628                dpd_scale_set
                0x4021f670                dpd_mem_write
 .irom0.text    0x4021f6ec      0x269 ../lib/libphy.a(phy_chip_v6_unused.o)
                                0x2fd (size before relaxing)
                0x4021f6ec                chip_v6_set_sense
                0x4021f6f0                chip_v6_get_sense
                0x4021f6f4                chip_v6_unset_chanfreq
                0x4021f700                data_collect
                0x4021f7d4                operation_test
                0x4021f84c                slop_wdt_feed
                0x4021f860                slop_test
                0x4021f90c                wd_reset_cnt
 *fill*         0x4021f955        0x3 
 .irom0.text    0x4021f958      0xce2 ../lib/libphy.a(phy_sleep.o)
                                0xf2e (size before relaxing)
                0x4021f958                pm_usec2rtc
                0x4021f98c                pm_rtc2usec
                0x4021f998                pm_set_sleep_cycles
                0x4021f9c0                pm_sleep_opt
                0x4021fac4                pm_wakeup_opt
                0x4021fafc                get_chip_version
                0x4021fb3c                pm_sleep_opt_bb_off
                0x4021fb7c                pm_sleep_opt_bb_on
                0x4021fbc8                pm_set_pll_xtal_wait_time
                0x4021fc10                pm_prepare_to_sleep
                0x4021fc34                pm_sdio_nidle
                0x4021fca8                chg_lslp_mem_opt_8266
                0x4021fcd4                pm_goto_sleep
                0x4021fe20                pm_wait4wakeup
                0x4021fe58                pm_open_rf
                0x4021fe9c                pm_sleep_set_mac
                0x4021ff20                pm_set_wakeup_mac
                0x4021ffbc                pm_check_mac_idle
                0x40220014                pm_set_sleep_btco
                0x402200ac                pm_set_wakeup_btco
                0x402201b0                pm_set_sleep_mode
                0x40220280                pm_unmask_bt
                0x402202e4                pm_wakeup_init
                0x402204e0                sleep_opt_8266
                0x40220500                sleep_opt_bb_on_8266
                0x40220538                sleep_reset_analog_rtcreg_8266
 *fill*         0x4022063a        0x2 
 .irom0.text    0x4022063c     0x1136 ../lib/libphy.a(phy_chip_v5_cal_romfunc.o)
                               0x124a (size before relaxing)
                0x4022063c                rom_cal_tos_v50
                0x402207e8                rom_pbus_dco___SA2
                0x40220aa0                rom_rfcal_pwrctrl
                0x40220c28                rom_rfcal_rxiq
                0x40220e34                rom_rfcal_rxiq_set_reg
                0x40220f38                rom_rfcal_txcap
                0x40221198                rom_rfcal_txiq
                0x402213e4                rom_rfcal_txiq_cover
                0x402213e8                rom_rfcal_txiq_set_reg
                0x402214c4                rom_rxiq_cover_mg_mp
                0x40221610                rom_set_txbb_atten
                0x402216e0                rom_set_txiq_cal
 *fill*         0x40221772        0x2 
 .irom0.text    0x40221774       0xde ../lib/libpp.a(lmac.o)
                                 0xf2 (size before relaxing)
                0x40221778                lmacInitAc
                0x402217ac                lmacInit
 *fill*         0x40221852        0x2 
 .irom0.text    0x40221854     0x1d5d ../lib/libpp.a(pm.o)
                               0x23e5 (size before relaxing)
                0x402218d8                pm_rtc_clock_cali_proc
                0x40221910                pm_set_sleep_time
                0x40221e18                pm_rf_is_closed
                0x40221e58                pm_set_sleep_type_from_upper
                0x40221f14                pm_get_sleep_type
                0x402220d4                uart_tx_flush
                0x402220d8                pm_suspend
                0x402222d8                pm_shutdown
                0x402223d0                pm_reset_idle_sleep
                0x40222408                pm_idle_sleep
                0x40222414                pm_open
                0x40222508                pm_onBcnRx
                0x40222a80                vApplicationIdleHook
                0x40222ab0                freertos_set_idle_cb
                0x40222edc                pm_enable_gpio_wakeup
                0x40222f20                pm_attach
                0x40223034                pm_send_nullfunc
                0x402231e0                pm_is_waked
                0x402231f8                pm_is_open
                0x40223210                pm_scan_lock
                0x40223240                pm_try_scan_unlock
                0x40223258                pm_force_scan_unlock
                0x40223314                pm_scan_unlocked
                0x40223328                pm_allow_tx
                0x40223348                pm_assoc_parse
                0x40223360                pm_set_addr
                0x40223380                pm_sleep_for
                0x402233bc                pm_post
                0x40223570                pm_get_idle_wait_time
 *fill*         0x402235b1        0x3 
 .irom0.text    0x402235b4     0x12c1 ../lib/libpp.a(pp.o)
                               0x15e9 (size before relaxing)
                0x402235b4                PPWdtReset
                0x402235dc                pp_soft_wdt_init
                0x40223604                pp_soft_wdt_stop
                0x40223630                pp_soft_wdt_restart
                0x40223660                RxNodeNum
                0x40223670                TxNodeNum
                0x402236b8                pp_disable_noise_timer
                0x402236d0                pp_enable_noise_timer
                0x40223798                pp_noise_test
                0x402237a8                reset_noise_timer
                0x402237dc                pp_disable_idle_timer
                0x40223800                pp_enable_idle_timer
                0x40223828                pp_try_enable_idle_timer
                0x40223860                ppPeocessRxPktHdr
                0x402238c4                ppTask
                0x40223c6c                ppTxPkt
                0x40223e48                ppProcessWaitQ
                0x40223e5c                ppRegisterTxCallback
                0x40223e98                ppRecycleRxPkt
                0x40223ef8                ppCheckTxIdle
                0x402241e8                pp_tx_idle_timeout
                0x4022445c                ppGetTxQFirstAvail_Locked
                0x40224614                pp_attach
 *fill*         0x40224875        0x3 
 .irom0.text    0x40224878      0x296 ../lib/libpp.a(rate_control.o)
                                0x2a2 (size before relaxing)
                0x40224ac4                RC_SetBasicRate
 *fill*         0x40224b0e        0x2 
 .irom0.text    0x40224b10      0x411 ../lib/libpp.a(trc.o)
                                0x46d (size before relaxing)
                0x40224b3c                rcUpdatePhyMode
                0x40224c18                rcAttach
                0x40224c64                rcGetTrc
                0x40224c6c                trc_onDisconnect
                0x40224c70                trc_onScanStart
                0x40224c90                trc_onScanDone
                0x40224cb0                rc_enable_trc
                0x40224d78                rc_get_mask
                0x40224d8c                rc_disable_trc
                0x40224e04                rc_disable_trc_by_interface
                0x40224e24                rc_get_sta_trc
                0x40224e64                rc_get_trc
                0x40224ed4                rc_get_trc_by_index
                0x40224ef4                rc_only_sta_trc
 *fill*         0x40224f21        0x3 
 .irom0.text    0x40224f24      0xa43 ../lib/libpp.a(wdev.o)
                                0xb7f (size before relaxing)
                0x40224f2c                wDev_Option_Init
                0x40224ffc                wDev_Enable_Beacon_Tsf
                0x40225018                wDev_Disable_Beacon_Tsf
                0x40225034                wDev_Set_Beacon_Int
                0x4022503c                wDev_Reset_TBTT
                0x4022506c                wDev_Get_Next_TBTT
                0x40225308                wDev_Initialize
                0x40225370                wDevForceAck6M
                0x4022538c                wDev_SetMacAddress
                0x4022542c                wDev_SetRxPolicy
                0x40225480                wDev_SetBssid
                0x40225558                wDev_ClearBssid
                0x40225590                wDev_Insert_KeyEntry
                0x40225664                wDev_remove_KeyEntry
                0x402256a4                wDev_Crypto_Conf
                0x40225740                wDev_Crypto_Disable
                0x40225778                wDevDisableRx
                0x40225790                wDevEnableRx
                0x402257b4                wdev_go_sniffer
                0x40225898                wdev_exit_sniffer
 *fill*         0x40225967        0x1 
 .irom0.text    0x40225968      0x59f ../lib/libpp.a(esf_buf.o)
                                0x6bf (size before relaxing)
                0x4022596c                esf_buf_alloc
                0x40225ba0                esf_buf_recycle
                0x40225dfc                esf_buf_setup
 *fill*         0x40225f07        0x1 
 .irom0.text    0x40225f08      0x3a6 ../lib/libpp.a(if_hwctrl.o)
                                0x466 (size before relaxing)
                0x40225f0c                ic_get_addr
                0x40225f18                ic_set_opmode
                0x40225f2c                ic_enable_interface
                0x40225f7c                ic_interface_enabled
                0x40225f90                ic_disable_interface
                0x40225fd8                ic_is_pure_sta
                0x40225ff4                ic_get_ptk_alg
                0x40226004                ic_get_gtk_alg
                0x40226014                ic_set_ptk_alg
                0x40226024                ic_set_gtk_alg
                0x40226034                ic_interface_is_p2p
                0x402260b4                ic_set_vif
                0x40226124                ic_set_sta
                0x402261e4                ic_bss_info_update
                0x40226240                ic_set_key
                0x4022629c                ic_remove_key
 *fill*         0x402262ae        0x2 
 .irom0.text    0x402262b0      0x2fb ../lib/libnet80211.a(ieee80211.o)
                                0x3af (size before relaxing)
                0x40226340                ieee80211_ifattach
                0x40226384                ieee80211_mhz2ieee
                0x402263dc                ieee80211_chan2ieee
                0x402263fc                ieee80211_ieee2mhz
                0x40226434                ieee80211_find_channel
                0x4022645c                ieee80211_find_channel_byieee
                0x402264a4                wifi_mode_set
 *fill*         0x402265ab        0x1 
 .irom0.text    0x402265ac       0xc2 ../lib/libnet80211.a(ieee80211_crypto.o)
                                 0xca (size before relaxing)
                0x402265ac                ieee80211_crypto_attach
                0x402265b0                ieee80211_crypto_available
                0x402265b4                ieee80211_crypto_setkey
                0x402265b8                ieee80211_crypto_encap
                0x40226608                ieee80211_crypto_decap
 *fill*         0x4022666e        0x2 
 .irom0.text    0x40226670       0x45 ../lib/libnet80211.a(ieee80211_ets.o)
                                 0x49 (size before relaxing)
                0x40226670                ieee80211_getmgtframe
 *fill*         0x402266b5        0x3 
 .irom0.text    0x402266b8      0xf5d ../lib/libnet80211.a(ieee80211_hostap.o)
                               0x1259 (size before relaxing)
                0x402269ec                ieee80211_hostap_attach
                0x40226a9c                hostap_handle_timer
                0x40226b20                hostap_input
                0x4022740c                wifi_softap_start
                0x40227558                wifi_softap_stop
 *fill*         0x40227615        0x3 
 .irom0.text    0x40227618      0xa90 ../lib/libnet80211.a(ieee80211_ht.o)
                                0xb54 (size before relaxing)
                0x40227628                ieee80211_ht_attach
                0x40227678                ieee80211_ht_node_init
                0x402276bc                ieee80211_ht_node_cleanup
                0x402276f4                ieee80211_parse_htcap
                0x402277cc                ieee80211_ht_updateparams
                0x402278e4                ieee80211_setup_htrates
                0x402279b8                ieee80211_setup_basic_htrates
                0x40227d20                ieee80211_add_htcap
                0x40227d3c                ieee80211_add_htcap_vendor
                0x40227e60                ieee80211_add_htinfo
                0x40227e7c                ieee80211_add_htinfo_vendor
 .irom0.text    0x402280a8      0x8d8 ../lib/libnet80211.a(ieee80211_input.o)
                                0x950 (size before relaxing)
                0x402280a8                ieee80211_deliver_data
                0x402280fc                ieee80211_decap
                0x40228204                ieee80211_setup_rates
                0x40228270                ieee80211_alloc_challenge
                0x402282a4                ieee80211_parse_beacon
                0x40228710                ieee80211_parse_wpa
                0x40228828                ieee80211_parse_rsn
                0x40228924                ieee80211_parse_action
                0x4022897c                ieee80211_setup_rateset
 .irom0.text    0x40228980     0x17c3 ../lib/libnet80211.a(ieee80211_output.o)
                               0x1a2f (size before relaxing)
                0x40228984                ieee80211_output_pbuf
                0x40228c04                ieee80211_send_setup
                0x40228d30                ieee80211_mgmt_output
                0x40228e24                ieee80211_tx_mgt_cb
                0x40228e28                ieee80211_send_nulldata
                0x40229280                ieee80211_add_rates
                0x402292b8                ieee80211_add_xrates
                0x40229354                ieee80211_send_probereq
                0x40229500                ieee80211_getcapinfo
                0x4022955c                ieee80211_send_mgmt
                0x40229abc                ieee80211_alloc_proberesp
                0x40229cb8                ieee80211_send_proberesp
                0x40229ff8                ieee80211_beacon_alloc
 *fill*         0x4022a143        0x1 
 .irom0.text    0x4022a144      0x147 ../lib/libnet80211.a(ieee80211_phy.o)
                                0x16f (size before relaxing)
                0x4022a148                ieee80211_get_11g_ratetable
                0x4022a154                ieee80211_get_ratetable
                0x4022a16c                ieee80211_phy_init
                0x4022a1a0                ieee80211_phy_type_get
                0x4022a1b0                ieee80211_setup_ratetable
                0x4022a1e4                ieee80211_compute_duration
                0x4022a264                ieee80211_dot11Rate_rix
 *fill*         0x4022a28b        0x1 
 .irom0.text    0x4022a28c      0x160 ../lib/libnet80211.a(ieee80211_power.o)
                                0x17c (size before relaxing)
                0x4022a28c                ieee80211_psq_init
                0x4022a2a4                ieee80211_psq_cleanup
                0x4022a2ac                ieee80211_set_tim
                0x4022a2ec                ieee80211_pwrsave
                0x4022a3b8                ieee80211_node_pwrsave
 .irom0.text    0x4022a3ec      0x15b ../lib/libnet80211.a(ieee80211_proto.o)
                                0x177 (size before relaxing)
                0x4022a3f0                ieee80211_proto_attach
                0x4022a418                ieee80211_set_shortslottime
                0x4022a434                ieee80211_iserp_rateset
                0x4022a4c8                ieee80211_setbasicrates
                0x4022a4dc                ieee80211_addbasicrates
                0x4022a4f0                ieee80211_wme_initparams
                0x4022a4f4                ieee80211_wme_updateparams
                0x4022a4f8                ieee80211_mlme_connect_bss
 *fill*         0x4022a547        0x1 
 .irom0.text    0x4022a548      0xd0d ../lib/libnet80211.a(ieee80211_scan.o)
                               0x1021 (size before relaxing)
                0x4022a558                ieee80211_scan_attach
                0x4022a5d4                scan_start
                0x4022a6b4                scan_pm_channel_op_cb
                0x4022a84c                scan_cancel
                0x4022a958                scan_add_bssid
                0x4022a97c                scan_remove_bssid
                0x4022a988                scan_hidden_ssid
                0x4022a990                scan_add_probe_ssid
                0x4022a9d0                scan_remove_probe_ssid
                0x4022ab04                scan_clear_channles
                0x4022ab74                scan_set_desChan
                0x4022ab80                scan_get_type
                0x4022ab88                cannel_scan_connect_state
                0x4022aba0                scan_connect_state
                0x4022abe8                scan_check_hidden
                0x4022ac14                scan_profile_check
                0x4022af84                scan_parse_beacon
 *fill*         0x4022b255        0x3 
 .irom0.text    0x4022b258      0xb3d ../lib/libnet80211.a(ieee80211_sta.o)
                                0xd0d (size before relaxing)
                0x4022b280                sta_status_set
                0x4022b2b8                ieee80211_sta_new_state
                0x4022b484                sta_input
                0x4022b7f8                ieee80211_parse_wmeparams
                0x4022bccc                wifi_station_start
                0x4022bd50                wifi_station_stop
 *fill*         0x4022bd95        0x3 
 .irom0.text    0x4022bd98      0x32e ../lib/libnet80211.a(wl_chm.o)
                                0x3da (size before relaxing)
                0x4022bda4                chm_init
                0x4022be50                chm_acquire_lock
                0x4022be94                chm_release_lock
                0x4022bea8                chm_start_op
                0x4022bf48                chm_end_op
                0x4022bf90                chm_cancel_op
                0x4022bfc4                chm_return_home_channel
                0x4022bff8                chm_set_current_channel
                0x4022c070                chm_freq2index
                0x4022c098                chm_check_same_channel
 *fill*         0x4022c0c6        0x2 
 .irom0.text    0x4022c0c8     0x1315 ../lib/libnet80211.a(wl_cnx.o)
                               0x172d (size before relaxing)
                0x4022c0d4                cnx_attach
                0x4022c114                cnx_sta_connect_led_timer_cb
                0x4022c168                cnx_sta_connect_cmd
                0x4022c20c                cnx_sta_scan_cmd
                0x4022c460                cnx_connect_timeout
                0x4022c4c8                cnx_start_handoff_cb
                0x4022c8d8                cnx_bss_alloc
                0x4022c988                cnx_rc_search
                0x4022ca50                cnx_add_rc
                0x4022cb3c                cnx_remove_rc
                0x4022cc10                cnx_rc_update_rssi
                0x4022cc94                cnx_rc_update_state_metric
                0x4022cd00                cnx_rc_update_age
                0x4022cd24                cnx_update_bss
                0x4022cd5c                cnx_update_bss_more
                0x4022cee8                cnx_sta_leave
                0x4022d008                cnx_sta_associated
                0x4022d064                cnx_node_alloc
                0x4022d0c4                cnx_node_remove
                0x4022d138                cnx_node_search
                0x4022d198                cnx_node_leave
                0x4022d254                cnx_node_join
 *fill*         0x4022d3dd        0x3 
 .irom0.text    0x4022d3e0      0x161 ../lib/libnet80211.a(ieee80211_action.o)
                                0x181 (size before relaxing)
                0x4022d3f0                ieee80211_send_action_register
                0x4022d424                ieee80211_send_action_unregister
                0x4022d438                ieee80211_send_action
                0x4022d49c                ieee80211_recv_action_register
                0x4022d4d0                ieee80211_recv_action_unregister
                0x4022d4e4                ieee80211_recv_action
 *fill*         0x4022d541        0x3 
 .irom0.text    0x4022d544      0x282 ../lib/libwpa.a(ap_config.o)
                                0x2ba (size before relaxing)
                0x4022d548                hostapd_config_defaults_bss
                0x4022d590                hostapd_config_defaults
                0x4022d5fc                hostapd_mac_comp
                0x4022d614                hostapd_mac_comp_empty
                0x4022d66c                hostapd_setup_wpa_psk
                0x4022d69c                hostapd_wep_key_cmp
                0x4022d6ec                hostapd_maclist_found
                0x4022d758                hostapd_rate_found
                0x4022d774                hostapd_get_psk
 *fill*         0x4022d7c6        0x2 
 .irom0.text    0x4022d7c8      0x250 ../lib/libwpa.a(common.o)
                                0x28c (size before relaxing)
                0x4022d7c8                inc_byte_array
                0x4022d81c                hex2byte
                0x4022d850                hexstr2bin
                0x4022d89c                wpa_get_ntp_timestamp
                0x4022d930                wpa_config_parse_string
 .irom0.text    0x4022da18       0x5b ../lib/libwpa.a(os_xtensa.o)
                                 0x63 (size before relaxing)
                0x4022da18                os_get_time
                0x4022da20                os_random
                0x4022da34                os_get_random
 *fill*         0x4022da73        0x1 
 .irom0.text    0x4022da74      0x14d ../lib/libwpa.a(sha1-pbkdf2.o)
                                0x165 (size before relaxing)
                0x4022db5c                pbkdf2_sha1
 *fill*         0x4022dbc1        0x3 
 .irom0.text    0x4022dbc4     0x1ca7 ../lib/libwpa.a(wpa_auth.o)
                               0x1f47 (size before relaxing)
                0x4022dd04                wpa_auth_for_each_sta
                0x4022de68                wpa_init
                0x4022dedc                wpa_auth_sta_init
                0x4022df1c                wpa_auth_sta_associated
                0x4022df98                wpa_auth_sta_no_wpa
                0x4022dfe4                wpa_auth_sta_deinit
                0x4022e0c0                wpa_receive
                0x4022e52c                __wpa_send_eapol
                0x4022ea10                wpa_remove_ptk
                0x4022ea5c                wpa_auth_sm_event
 *fill*         0x4022f86b        0x1 
 .irom0.text    0x4022f86c      0x569 ../lib/libwpa.a(wpa_auth_ie.o)
                                0x5d5 (size before relaxing)
                0x4022f930                wpa_write_rsn_ie
                0x4022fa38                wpa_auth_gen_wpa_ie
                0x4022fabc                wpa_add_kde
                0x4022fb28                wpa_validate_wpa_ie
                0x4022fd28                wpa_parse_kde_ies
                0x4022fdc4                wpa_auth_uses_mfp
 *fill*         0x4022fdd5        0x3 
 .irom0.text    0x4022fdd8     0x1464 ../lib/libwpa.a(wpa.o)
                               0x16b8 (size before relaxing)
                0x40230d44                wpa_sm_rx_eapol
                0x40230ea8                wpa_register
                0x40230ed4                wpa_set_profile
                0x40230ee4                wpa_set_pmk
                0x40230f10                wpa_set_bss
                0x402310f8                pp_michael_mic_failure
                0x4023118c                eapol_txcb
                0x40231214                wpa_sm_set_state
 .irom0.text    0x4023123c      0x732 ../lib/libwpa.a(wpa_common.o)
                                0x7ca (size before relaxing)
                0x40231384                wpa_parse_wpa_ie_rsn
                0x40231518                wpa_parse_wpa_ie_wpa
                0x4023169c                wpa_eapol_key_mic
                0x402316dc                wpa_compare_rsn_ie
                0x40231704                wpa_pmk_to_ptk
                0x402317f0                rsn_pmkid
                0x40231824                wpa_cipher_key_len
                0x40231848                wpa_cipher_to_alg
                0x40231870                wpa_cipher_to_suite
                0x402318c4                rsn_cipher_put_suites
                0x40231924                wpa_cipher_put_suites
 *fill*         0x4023196e        0x2 
 .irom0.text    0x40231970      0x325 ../lib/libwpa.a(wpa_ie.o)
                                0x341 (size before relaxing)
                0x40231970                wpa_parse_wpa_ie
                0x40231a64                wpa_supplicant_parse_ies
                0x40231c64                wpa_gen_wpa_ie
 *fill*         0x40231c95        0x3 
 .irom0.text    0x40231c98      0x2d3 ../lib/libwpa.a(wpa_main.o)
                                0x387 (size before relaxing)
                0x40231c98                ppInstallKey
                0x40231da0                wpa_config_profile
                0x40231dd8                wpa_config_bss
                0x40231e18                wpa_config_assoc_ie
                0x40231e2c                dhcp_bind_check
                0x40231e58                eagle_auth_done
                0x40231f0c                wpa_neg_complete
                0x40231f34                wpa_attach
 *fill*         0x40231f6b        0x1 
 .irom0.text    0x40231f6c       0xd6 ../lib/libwpa.a(wpas_glue.o)
                                 0xe2 (size before relaxing)
                0x40231fe0                wpa_sm_alloc_eapol
                0x4023201c                wpa_sm_deauthenticate
                0x40232038                wpa_sm_mlme_setprotection
                0x4023203c                wpa_sm_get_beacon_ie
                0x40232040                wpa_sm_disassociate
 *fill*         0x40232042        0x2 
 .irom0.text    0x40232044       0xf0 ../lib/libwpa.a(aes-unwrap.o)
                                0x114 (size before relaxing)
                0x40232044                aes_unwrap
 .irom0.text    0x40232134       0xdf ../lib/libwpa.a(aes-wrap.o)
                                0x103 (size before relaxing)
                0x40232134                aes_wrap
 *fill*         0x40232213        0x1 
 .irom0.text    0x40232214      0x14f ../lib/libwpa.a(md5.o)
                                0x16b (size before relaxing)
                0x40232214                hmac_md5_vector
                0x40232344                hmac_md5
 *fill*         0x40232363        0x1 
 .irom0.text    0x40232364      0x9b4 ../lib/libwpa.a(md5-internal.o)
                                0x9dc (size before relaxing)
                0x40232364                md5_vector
                0x402323c8                MD5Init
                0x402323e4                MD5Update
                0x402324a4                MD5Final
 .irom0.text    0x40232d18      0x216 ../lib/libwpa.a(sha1.o)
                                0x23a (size before relaxing)
                0x40232d18                hmac_sha1_vector
                0x40232e4c                hmac_sha1
                0x40232e6c                sha1_prf
 *fill*         0x40232f2e        0x2 
 .irom0.text    0x40232f30     0x14fb ../lib/libwpa.a(sha1-internal.o)
                               0x157b (size before relaxing)
                0x40232f30                sha1_vector
                0x40232fa0                SHA1Transform
                0x4023428c                SHA1Init
                0x402342b0                SHA1Update
                0x4023434c                SHA1Final
 *fill*         0x4023442b        0x1 
 .irom0.text    0x4023442c      0x557 ../lib/libwpa.a(aes-internal-dec.o)
                                0x573 (size before relaxing)
                0x40234434                rijndaelKeySetupDec
                0x40234508                aes_decrypt_init
                0x4023495c                aes_decrypt
                0x4023496c                aes_decrypt_deinit
 *fill*         0x40234983        0x1 
 .irom0.text    0x40234984      0x47d ../lib/libwpa.a(aes-internal-enc.o)
                                0x49d (size before relaxing)
                0x40234984                rijndaelEncrypt
                0x40234d9c                aes_encrypt_init
                0x40234dcc                aes_encrypt
                0x40234ddc                aes_encrypt_deinit
 *fill*         0x40234e01        0x3 
 .irom0.text    0x40234e04      0x10a ../lib/libwpa.a(aes-internal.o)
                                0x11a (size before relaxing)
                0x40234e08                rijndaelKeySetupEnc
 *fill*         0x40234f0e        0x2 
 .irom0.text    0x40234f10      0x2f7 ../lib/libmain.a(libc.o)
                                0x31b (size before relaxing)
                0x40234f14                strtol
                0x40235024                strcat
                0x40235044                strncat
                0x40235074                strspn
                0x402350ac                strcspn
                0x402350e4                strtok_r
                0x4023513c                strtok
                0x40235150                strrchr
                0x4023517c                strdup
                0x402351bc                strchr
                0x402351d8                srand
                0x402351e0                atoi
                0x402351f4                atol
 *fill*         0x40235207        0x1 
 .irom0.text    0x40235208       0xeb ../lib/liblwip.a(ethernetif.o)
                                 0xfb (size before relaxing)
                0x40235264                ethernetif_input
                0x402352cc                ethernetif_init
 *fill*         0x402352f3        0x1 
 .irom0.text    0x402352f4      0x229 ../lib/liblwip.a(netdb.o)
                                0x260 (size before relaxing)
                0x402352fc                lwip_gethostbyname
                0x4023534c                lwip_gethostbyname_r
                0x402353fc                lwip_freeaddrinfo
                0x40235420                lwip_getaddrinfo
 *fill*         0x4023551d        0x3 
 .irom0.text    0x40235520      0x131 ../lib/libnet80211.a(ieee80211_crypto_ccmp.o)
                                0x135 (size before relaxing)
 *fill*         0x40235651        0x3 
 .irom0.text    0x40235654      0x15b ../lib/libnet80211.a(ieee80211_crypto_tkip.o)
                                0x167 (size before relaxing)
 *fill*         0x402357af        0x1 
 .irom0.text    0x402357b0       0x7c ../lib/libnet80211.a(ieee80211_crypto_wep.o)
                                 0x80 (size before relaxing)
 .irom0.literal
                0x4023582c        0x0 ../lib/libmain.a(app_main.o)
 *fill*         0x4023582c        0x4 
 .irom.text     0x40235830       0x80 ../lib/libmain.a(app_main.o)
 .irom0.literal
                0x402358b0        0x0 ../lib/libmain.a(ets_timer.o)
 *fill*         0x402358b0        0x0 
 .irom0.literal
                0x402358b0        0x0 ../lib/libmain.a(misc.o)
 .irom0.literal
                0x402358b0        0x0 ../lib/libmain.a(uart.o)
 *fill*         0x402358b0        0x0 
 .irom0.literal
                0x402358b0        0x0 ../lib/libmain.a(user_interface.o)
 *fill*         0x402358b0        0x0 
 .irom0.literal
                0x402358b0        0x0 ../lib/libmain.a(timers.o)
 *fill*         0x402358b0        0x0 
 .irom0.literal
                0x402358b0        0x0 ../lib/libfreertos.a(port.o)
 *fill*         0x402358b0        0x0 
 .irom0.literal
                0x402358b0        0x0 ../lib/libfreertos.a(queue.o)
 *fill*         0x402358b0        0x0 
 .irom0.literal
                0x402358b0        0x0 ../lib/libfreertos.a(tasks.o)
 *fill*         0x402358b0        0x0 
 .irom0.literal
                0x402358b0        0x0 ../lib/libfreertos.a(timers.o)
 .irom0.literal
                0x402358b0        0x0 ../lib/libfreertos.a(list.o)
 .irom0.text    0x402358b0       0x4c ../lib/libfreertos.a(list.o)
                0x402358b0                vListInitialise
                0x402358c4                vListInitialiseItem
                0x402358cc                vListInsert
 .irom0.literal
                0x402358fc        0x0 ../lib/liblwip.a(dhcp.o)
 *fill*         0x402358fc        0x0 
 .irom0.literal
                0x402358fc        0x0 ../lib/liblwip.a(dns.o)
 *fill*         0x402358fc        0x0 
 .irom0.literal
                0x402358fc        0x0 ../lib/liblwip.a(etharp.o)
 *fill*         0x402358fc        0x0 
 .irom0.literal
                0x402358fc        0x0 ../lib/liblwip.a(ip4_addr.o)
 .irom0.literal
                0x402358fc        0x0 ../lib/liblwip.a(ip4.o)
 .irom0.literal
                0x402358fc        0x0 ../lib/liblwip.a(ip_frag.o)
 *fill*         0x402358fc        0x0 
 .irom0.literal
                0x402358fc        0x0 ../lib/liblwip.a(netif.o)
 *fill*         0x402358fc        0x0 
 .irom0.literal
                0x402358fc        0x0 ../lib/liblwip.a(pbuf.o)
 *fill*         0x402358fc        0x0 
 .irom0.literal
                0x402358fc        0x0 ../lib/liblwip.a(raw.o)
 *fill*         0x402358fc        0x0 
 .irom0.literal
                0x402358fc        0x0 ../lib/liblwip.a(stats.o)
 .irom0.text    0x402358fc        0x2 ../lib/liblwip.a(stats.o)
                0x402358fc                stats_init
 *fill*         0x402358fe        0x2 
 .irom0.literal
                0x40235900        0x0 ../lib/liblwip.a(sys_arch.o)
 *fill*         0x40235900        0x0 
 .irom0.literal
                0x40235900        0x0 ../lib/liblwip.a(tcp_in.o)
 *fill*         0x40235900        0x0 
 .irom0.literal
                0x40235900        0x0 ../lib/liblwip.a(tcpip.o)
 *fill*         0x40235900        0x0 
 .irom0.literal
                0x40235900        0x0 ../lib/liblwip.a(tcp.o)
 *fill*         0x40235900        0x0 
 .irom0.literal
                0x40235900        0x0 ../lib/liblwip.a(tcp_out.o)
 *fill*         0x40235900        0x0 
 .irom0.literal
                0x40235900        0x0 ../lib/liblwip.a(timers.o)
 *fill*         0x40235900        0x0 
 .irom0.literal
                0x40235900        0x0 ../lib/liblwip.a(udp.o)
 *fill*         0x40235900        0x0 
 .irom0.literal
                0x40235900        0x0 ../lib/liblwip.a(icmp.o)
 *fill*         0x40235900        0x0 
 .irom0.literal
                0x40235900        0x0 ../lib/liblwip.a(inet_chksum.o)
 .irom0.text    0x40235900      0x2e2 ../lib/liblwip.a(inet_chksum.o)
                0x40235900                lwip_standard_chksum
                0x40235a24                inet_chksum_pseudo
                0x40235b20                inet_chksum_pseudo_partial
                0x40235b58                inet_chksum
                0x40235b70                inet_chksum_pbuf
 *fill*         0x40235be2        0x2 
 .irom0.literal
                0x40235be4        0x0 ../lib/liblwip.a(init.o)
 .irom0.literal
                0x40235be4        0x0 ../lib/liblwip.a(sockets.o)
 *fill*         0x40235be4        0x0 
 .irom0.literal
                0x40235be4        0x0 ../lib/liblwip.a(api_lib.o)
 *fill*         0x40235be4        0x0 
 .irom0.literal
                0x40235be4        0x0 ../lib/liblwip.a(api_msg.o)
 *fill*         0x40235be4        0x0 
 .irom0.literal
                0x40235be4        0x0 ../lib/liblwip.a(netbuf.o)
 .irom0.literal
                0x40235be4        0x0 user/.output/eagle/debug/lib/libuser.a(user_main.o)
 *fill*         0x40235be4        0x0 
 .irom0.literal
                0x40235be4        0x0 user/.output/eagle/debug/lib/libuser.a(util-logtrace.o)
 *fill*         0x40235be4        0x0 
 .irom0.literal
                0x40235be4        0x0 user/.output/eagle/debug/lib/libuser.a(util-terminal.o)
 *fill*         0x40235be4        0x0 
 .irom0.literal
                0x40235be4        0x0 user/.output/eagle/debug/lib/libuser.a(util-task.o)
 *fill*         0x40235be4        0x0 
 .irom0.literal
                0x40235be4        0x0 user/.output/eagle/debug/lib/libuser.a(task-af.o)
 *fill*         0x40235be4        0x0 
 .irom0.literal
                0x40235be4        0x0 user/.output/eagle/debug/lib/libuser.a(http-protocol.o)
 *fill*         0x40235be4        0x0 
 .irom0.literal
                0x40235be4        0x0 user/.output/eagle/debug/lib/libuser.a(af-interface.o)
 *fill*         0x40235be4        0x0 
 .irom0.literal
                0x40235be4        0x0 user/.output/eagle/debug/lib/libuser.a(af-buffer.o)
 *fill*         0x40235be4        0x0 
 .irom0.literal
                0x40235be4        0x0 user/.output/eagle/debug/lib/libuser.a(tcp-socket.o)
 *fill*         0x40235be4        0x0 
 .irom0.literal
                0x40235be4        0x0 ../../codec-mpeg/.output/eagle/debug/lib/libcodec-mpeg.a(codec-mpeg.o)
 *fill*         0x40235be4        0x0 
 .irom0.literal
                0x40235be4        0x0 ../../codec-mpeg/.output/eagle/debug/lib/libcodec-mpeg.a(frame.o)
 *fill*         0x40235be4        0x0 
 .irom.text     0x40235be4      0x144 ../../codec-mpeg/.output/eagle/debug/lib/libcodec-mpeg.a(frame.o)
 .irom0.literal
                0x40235d28        0x0 ../../codec-mpeg/.output/eagle/debug/lib/libcodec-mpeg.a(layer3.o)
 .irom.text     0x40235d28     0x837c ../../codec-mpeg/.output/eagle/debug/lib/libcodec-mpeg.a(layer3.o)
 .irom0.literal
                0x4023e0a4        0x0 ../../codec-mpeg/.output/eagle/debug/lib/libcodec-mpeg.a(stream.o)
 *fill*         0x4023e0a4        0x0 
 .irom0.literal
                0x4023e0a4        0x0 ../../codec-mpeg/.output/eagle/debug/lib/libcodec-mpeg.a(synth_stereo.o)
 *fill*         0x4023e0a4        0x0 
 .irom.text     0x4023e0a4      0x880 ../../codec-mpeg/.output/eagle/debug/lib/libcodec-mpeg.a(synth_stereo.o)
 .irom0.literal
                0x4023e924        0x0 ../../codec-mpeg/.output/eagle/debug/lib/libcodec-mpeg.a(timer.o)
 *fill*         0x4023e924        0x0 
 .irom.text     0x4023e924      0x200 ../../codec-mpeg/.output/eagle/debug/lib/libcodec-mpeg.a(bit.o)
 .irom.text     0x4023eb24     0x23bc ../../codec-mpeg/.output/eagle/debug/lib/libcodec-mpeg.a(huffman.o)
                0x4023eb24                mad_huff_pair_table
 .irom0.literal
                0x40240ee0        0x0 ../../adif-esp-i2s-dsm/.output/eagle/debug/lib/libadif-esp-i2s-dsm.a(adif-esp-i2s-dsm.o)
 .irom0.literal
                0x40240ee0        0x0 driver/.output/eagle/debug/lib/libdriver.a(i2s_freertos.o)
 *fill*         0x40240ee0        0x0 
 .irom0.literal
                0x40240ee0        0x0 driver/.output/eagle/debug/lib/libdriver.a(uart.o)
 *fill*         0x40240ee0        0x0 
 .irom0.literal
                0x40240ee0        0x0 ../lib/libphy.a(phy.o)
 *fill*         0x40240ee0        0x0 
 .irom0.literal
                0x40240ee0        0x0 ../lib/libphy.a(phy_chip_v5_ana_romfunc.o)
 *fill*         0x40240ee0        0x0 
 .irom0.literal
                0x40240ee0        0x0 ../lib/libphy.a(phy_chip_v5_romfunc.o)
 .irom0.literal
                0x40240ee0        0x0 ../lib/libphy.a(phy_chip_v6_ana.o)
 .irom0.literal
                0x40240ee0        0x0 ../lib/libphy.a(phy_chip_v6.o)
 .irom0.literal
                0x40240ee0        0x0 ../lib/libphy.a(phy_chip_v6_cal.o)
 .irom0.literal
                0x40240ee0        0x0 ../lib/libphy.a(phy_chip_v6_unused.o)
 *fill*         0x40240ee0        0x0 
 .irom0.literal
                0x40240ee0        0x0 ../lib/libphy.a(phy_sleep.o)
 *fill*         0x40240ee0        0x0 
 .irom0.literal
                0x40240ee0        0x0 ../lib/libphy.a(phy_chip_v5_cal_romfunc.o)
 *fill*         0x40240ee0        0x0 
 .irom0.literal
                0x40240ee0        0x0 ../lib/libpp.a(lmac.o)
 *fill*         0x40240ee0        0x0 
 .irom0.literal
                0x40240ee0        0x0 ../lib/libpp.a(pm.o)
 *fill*         0x40240ee0        0x0 
 .irom0.literal
                0x40240ee0        0x0 ../lib/libpp.a(pp.o)
 *fill*         0x40240ee0        0x0 
 .irom0.literal
                0x40240ee0        0x0 ../lib/libpp.a(rate_control.o)
 *fill*         0x40240ee0        0x0 
 .irom0.literal
                0x40240ee0        0x0 ../lib/libpp.a(trc.o)
 *fill*         0x40240ee0        0x0 
 .irom0.literal
                0x40240ee0        0x0 ../lib/libpp.a(wdev.o)
 *fill*         0x40240ee0        0x0 
 .irom0.literal
                0x40240ee0        0x0 ../lib/libpp.a(esf_buf.o)
 *fill*         0x40240ee0        0x0 
 .irom0.literal
                0x40240ee0        0x0 ../lib/libpp.a(if_hwctrl.o)
 *fill*         0x40240ee0        0x0 
 .irom0.literal
                0x40240ee0        0x0 ../lib/libnet80211.a(ieee80211.o)
 *fill*         0x40240ee0        0x0 
 .irom0.literal
                0x40240ee0        0x0 ../lib/libnet80211.a(ieee80211_crypto.o)
 *fill*         0x40240ee0        0x0 
 .irom0.literal
                0x40240ee0        0x0 ../lib/libnet80211.a(ieee80211_ets.o)
 *fill*         0x40240ee0        0x0 
 .irom0.literal
                0x40240ee0        0x0 ../lib/libnet80211.a(ieee80211_hostap.o)
 *fill*         0x40240ee0        0x0 
 .irom0.literal
                0x40240ee0        0x0 ../lib/libnet80211.a(ieee80211_ht.o)
 .irom0.literal
                0x40240ee0        0x0 ../lib/libnet80211.a(ieee80211_input.o)
 .irom0.literal
                0x40240ee0        0x0 ../lib/libnet80211.a(ieee80211_output.o)
 *fill*         0x40240ee0        0x0 
 .irom0.literal
                0x40240ee0        0x0 ../lib/libnet80211.a(ieee80211_phy.o)
 *fill*         0x40240ee0        0x0 
 .irom0.literal
                0x40240ee0        0x0 ../lib/libnet80211.a(ieee80211_power.o)
 .irom0.literal
                0x40240ee0        0x0 ../lib/libnet80211.a(ieee80211_proto.o)
 *fill*         0x40240ee0        0x0 
 .irom0.literal
                0x40240ee0        0x0 ../lib/libnet80211.a(ieee80211_scan.o)
 *fill*         0x40240ee0        0x0 
 .irom0.literal
                0x40240ee0        0x0 ../lib/libnet80211.a(ieee80211_sta.o)
 *fill*         0x40240ee0        0x0 
 .irom0.literal
                0x40240ee0        0x0 ../lib/libnet80211.a(wl_chm.o)
 *fill*         0x40240ee0        0x0 
 .irom0.literal
                0x40240ee0        0x0 ../lib/libnet80211.a(wl_cnx.o)
 *fill*         0x40240ee0        0x0 
 .irom0.literal
                0x40240ee0        0x0 ../lib/libnet80211.a(ieee80211_action.o)
 *fill*         0x40240ee0        0x0 
 .irom0.literal
                0x40240ee0        0x0 ../lib/libwpa.a(ap_config.o)
 *fill*         0x40240ee0        0x0 
 .irom0.literal
                0x40240ee0        0x0 ../lib/libwpa.a(common.o)
 .irom0.literal
                0x40240ee0        0x0 ../lib/libwpa.a(os_xtensa.o)
 *fill*         0x40240ee0        0x0 
 .irom0.literal
                0x40240ee0        0x0 ../lib/libwpa.a(sha1-pbkdf2.o)
 *fill*         0x40240ee0        0x0 
 .irom0.literal
                0x40240ee0        0x0 ../lib/libwpa.a(wpa_auth.o)
 *fill*         0x40240ee0        0x0 
 .irom0.literal
                0x40240ee0        0x0 ../lib/libwpa.a(wpa_auth_ie.o)
 *fill*         0x40240ee0        0x0 
 .irom0.literal
                0x40240ee0        0x0 ../lib/libwpa.a(wpa.o)
 .irom0.literal
                0x40240ee0        0x0 ../lib/libwpa.a(wpa_common.o)
 *fill*         0x40240ee0        0x0 
 .irom0.literal
                0x40240ee0        0x0 ../lib/libwpa.a(wpa_debug.o)
 .irom0.text    0x40240ee0        0x8 ../lib/libwpa.a(wpa_debug.o)
                0x40240ee0                eloop_cancel_timeout
                0x40240ee4                eloop_register_timeout
 .irom0.literal
                0x40240ee8        0x0 ../lib/libwpa.a(wpa_ie.o)
 *fill*         0x40240ee8        0x0 
 .irom0.literal
                0x40240ee8        0x0 ../lib/libwpa.a(wpa_main.o)
 *fill*         0x40240ee8        0x0 
 .irom0.literal
                0x40240ee8        0x0 ../lib/libwpa.a(wpas_glue.o)
 *fill*         0x40240ee8        0x0 
 .irom0.literal
                0x40240ee8        0x0 ../lib/libwpa.a(aes-unwrap.o)
 .irom0.literal
                0x40240ee8        0x0 ../lib/libwpa.a(aes-wrap.o)
 *fill*         0x40240ee8        0x0 
 .irom0.literal
                0x40240ee8        0x0 ../lib/libwpa.a(md5.o)
 *fill*         0x40240ee8        0x0 
 .irom0.literal
                0x40240ee8        0x0 ../lib/libwpa.a(md5-internal.o)
 .irom0.literal
                0x40240ee8        0x0 ../lib/libwpa.a(rc4.o)
 .irom0.text    0x40240ee8       0xdb ../lib/libwpa.a(rc4.o)
                0x40240ee8                rc4_skip
 *fill*         0x40240fc3        0x1 
 .irom0.literal
                0x40240fc4        0x0 ../lib/libwpa.a(sha1.o)
 *fill*         0x40240fc4        0x0 
 .irom0.literal
                0x40240fc4        0x0 ../lib/libwpa.a(sha1-internal.o)
 *fill*         0x40240fc4        0x0 
 .irom0.literal
                0x40240fc4        0x0 ../lib/libwpa.a(aes-internal-dec.o)
 *fill*         0x40240fc4        0x0 
 .irom0.literal
                0x40240fc4        0x0 ../lib/libwpa.a(aes-internal-enc.o)
 *fill*         0x40240fc4        0x0 
 .irom0.literal
                0x40240fc4        0x0 ../lib/libwpa.a(aes-internal.o)
 *fill*         0x40240fc4        0xc 
 .irom.text     0x40240fd0      0x900 ../lib/libwpa.a(aes-internal.o)
                0x40240fd0                Te0
                0x402413d0                Td0
                0x402417d0                Td4s_rom
 .irom0.literal
                0x402418d0        0x0 ../lib/libmain.a(libc.o)
 *fill*         0x402418d0        0x0 
 .irom0.literal
                0x402418d0        0x0 ../lib/liblwip.a(ethernetif.o)
 *fill*         0x402418d0        0x0 
 .irom0.literal
                0x402418d0        0x0 ../lib/liblwip.a(netdb.o)
 .irom0.literal
                0x402418d0        0x0 ../lib/libnet80211.a(ieee80211_crypto_ccmp.o)
 *fill*         0x402418d0        0x0 
 .irom0.literal
                0x402418d0        0x0 ../lib/libnet80211.a(ieee80211_crypto_tkip.o)
 *fill*         0x402418d0        0x0 
 .irom0.literal
                0x402418d0        0x0 ../lib/libnet80211.a(ieee80211_crypto_wep.o)
                0x402418d0                _irom0_text_end = ABSOLUTE (.)
                0x400040c0                PROVIDE (SPI_sector_erase, 0x400040c0)
                0x40004174                PROVIDE (SPI_page_program, 0x40004174)
                0x400042ac                PROVIDE (SPI_read_data, 0x400042ac)
                0x400043c8                PROVIDE (SPI_read_status, 0x400043c8)
                0x40004400                PROVIDE (SPI_write_status, 0x40004400)
                0x4000443c                PROVIDE (SPI_write_enable, 0x4000443c)
                0x4000448c                PROVIDE (Wait_SPI_Idle, 0x4000448c)
                0x400044c0                PROVIDE (Enable_QMode, 0x400044c0)
                0x40004508                PROVIDE (Disable_QMode, 0x40004508)
                0x40004678                PROVIDE (Cache_Read_Enable, 0x40004678)
                0x400047f0                PROVIDE (Cache_Read_Disable, 0x400047f0)
                0x40004f40                PROVIDE (lldesc_build_chain, 0x40004f40)
                0x40005050                PROVIDE (lldesc_num2link, 0x40005050)
                0x4000507c                PROVIDE (lldesc_set_owner, 0x4000507c)
                0x4000c538                PROVIDE (__adddf3, 0x4000c538)
                0x4000c180                PROVIDE (__addsf3, 0x4000c180)
                0x4000cb94                PROVIDE (__divdf3, 0x4000cb94)
                0x4000ce60                PROVIDE (__divdi3, 0x4000ce60)
                0x4000dc88                PROVIDE (__divsi3, 0x4000dc88)
                0x4000cdfc                PROVIDE (__extendsfdf2, 0x4000cdfc)
                0x4000ccb8                PROVIDE (__fixdfsi, 0x4000ccb8)
                0x4000cd00                PROVIDE (__fixunsdfsi, 0x4000cd00)
                0x4000c4c4                PROVIDE (__fixunssfsi, 0x4000c4c4)
                0x4000e2f0                PROVIDE (__floatsidf, 0x4000e2f0)
                0x4000e2ac                PROVIDE (__floatsisf, 0x4000e2ac)
                0x4000e2e8                PROVIDE (__floatunsidf, 0x4000e2e8)
                0x4000e2a4                PROVIDE (__floatunsisf, 0x4000e2a4)
                0x4000c8f0                PROVIDE (__muldf3, 0x4000c8f0)
                0x40000650                PROVIDE (__muldi3, 0x40000650)
                0x4000c3dc                PROVIDE (__mulsf3, 0x4000c3dc)
                0x4000c688                PROVIDE (__subdf3, 0x4000c688)
                0x4000c268                PROVIDE (__subsf3, 0x4000c268)
                0x4000cd5c                PROVIDE (__truncdfsf2, 0x4000cd5c)
                0x4000d310                PROVIDE (__udivdi3, 0x4000d310)
                0x4000e21c                PROVIDE (__udivsi3, 0x4000e21c)
                0x4000d770                PROVIDE (__umoddi3, 0x4000d770)
                0x4000e268                PROVIDE (__umodsi3, 0x4000e268)
                0x4000dcf0                PROVIDE (__umulsidi3, 0x4000dcf0)
                0x40002ae8                PROVIDE (bzero, 0x40002ae8)
                0x400018d4                PROVIDE (memcmp, 0x400018d4)
                0x400018b4                PROVIDE (memcpy, 0x400018b4)
                0x400018c4                PROVIDE (memmove, 0x400018c4)
                0x400018a4                PROVIDE (memset, 0x400018a4)
                0x40002aa8                PROVIDE (strcmp, 0x40002aa8)
                0x40002a88                PROVIDE (strcpy, 0x40002a88)
                0x40002ac8                PROVIDE (strlen, 0x40002ac8)
                0x40002ab8                PROVIDE (strncmp, 0x40002ab8)
                0x40002a98                PROVIDE (strncpy, 0x40002a98)
                0x40002ad8                PROVIDE (strstr, 0x40002ad8)
OUTPUT(.output/eagle/debug/image/eagle.app.v6.out elf32-xtensa-le)

.xtensa.info    0x00000000       0x38
 .xtensa.info   0x00000000       0x38 ../lib/libmain.a(xtensa_vectors.o)
 .xtensa.info   0x00000000        0x0 ../lib/libmain.a(app_main.o)
 .xtensa.info   0x00000000        0x0 ../lib/libmain.a(ets_timer.o)
 .xtensa.info   0x00000000        0x0 ../lib/libmain.a(misc.o)
 .xtensa.info   0x00000000        0x0 ../lib/libmain.a(printf-stdarg.o)
 .xtensa.info   0x00000000        0x0 ../lib/libmain.a(spi_flash.o)
 .xtensa.info   0x00000000        0x0 ../lib/libmain.a(uart.o)
 .xtensa.info   0x00000000        0x0 ../lib/libmain.a(user_interface.o)
 .xtensa.info   0x00000000        0x0 ../lib/libmain.a(os_cpu_a.o)
 .xtensa.info   0x00000000        0x0 ../lib/libmain.a(xtensa_context.o)
 .xtensa.info   0x00000000        0x0 ../lib/libmain.a(timers.o)
 .xtensa.info   0x00000000        0x0 ../lib/libfreertos.a(heap_4.o)
 .xtensa.info   0x00000000        0x0 ../lib/libfreertos.a(port.o)
 .xtensa.info   0x00000000        0x0 ../lib/libfreertos.a(queue.o)
 .xtensa.info   0x00000000        0x0 ../lib/libfreertos.a(tasks.o)
 .xtensa.info   0x00000000        0x0 ../lib/libfreertos.a(timers.o)
 .xtensa.info   0x00000000        0x0 ../lib/libfreertos.a(list.o)
 .xtensa.info   0x00000000        0x0 ../lib/liblwip.a(dhcp.o)
 .xtensa.info   0x00000000        0x0 ../lib/liblwip.a(dns.o)
 .xtensa.info   0x00000000        0x0 ../lib/liblwip.a(etharp.o)
 .xtensa.info   0x00000000        0x0 ../lib/liblwip.a(ip4_addr.o)
 .xtensa.info   0x00000000        0x0 ../lib/liblwip.a(ip4.o)
 .xtensa.info   0x00000000        0x0 ../lib/liblwip.a(ip_frag.o)
 .xtensa.info   0x00000000        0x0 ../lib/liblwip.a(memp.o)
 .xtensa.info   0x00000000        0x0 ../lib/liblwip.a(netif.o)
 .xtensa.info   0x00000000        0x0 ../lib/liblwip.a(pbuf.o)
 .xtensa.info   0x00000000        0x0 ../lib/liblwip.a(raw.o)
 .xtensa.info   0x00000000        0x0 ../lib/liblwip.a(stats.o)
 .xtensa.info   0x00000000        0x0 ../lib/liblwip.a(sys_arch.o)
 .xtensa.info   0x00000000        0x0 ../lib/liblwip.a(tcp_in.o)
 .xtensa.info   0x00000000        0x0 ../lib/liblwip.a(tcpip.o)
 .xtensa.info   0x00000000        0x0 ../lib/liblwip.a(tcp.o)
 .xtensa.info   0x00000000        0x0 ../lib/liblwip.a(tcp_out.o)
 .xtensa.info   0x00000000        0x0 ../lib/liblwip.a(timers.o)
 .xtensa.info   0x00000000        0x0 ../lib/liblwip.a(udp.o)
 .xtensa.info   0x00000000        0x0 ../lib/liblwip.a(icmp.o)
 .xtensa.info   0x00000000        0x0 ../lib/liblwip.a(inet_chksum.o)
 .xtensa.info   0x00000000        0x0 ../lib/liblwip.a(init.o)
 .xtensa.info   0x00000000        0x0 ../lib/liblwip.a(sockets.o)
 .xtensa.info   0x00000000        0x0 ../lib/liblwip.a(api_lib.o)
 .xtensa.info   0x00000000        0x0 ../lib/liblwip.a(api_msg.o)
 .xtensa.info   0x00000000        0x0 ../lib/liblwip.a(netbuf.o)
 .xtensa.info   0x00000000        0x0 user/.output/eagle/debug/lib/libuser.a(user_main.o)
 .xtensa.info   0x00000000        0x0 user/.output/eagle/debug/lib/libuser.a(util-logtrace.o)
 .xtensa.info   0x00000000        0x0 user/.output/eagle/debug/lib/libuser.a(util-terminal.o)
 .xtensa.info   0x00000000        0x0 user/.output/eagle/debug/lib/libuser.a(util-task.o)
 .xtensa.info   0x00000000        0x0 user/.output/eagle/debug/lib/libuser.a(task-af.o)
 .xtensa.info   0x00000000        0x0 user/.output/eagle/debug/lib/libuser.a(http-protocol.o)
 .xtensa.info   0x00000000        0x0 user/.output/eagle/debug/lib/libuser.a(af-interface.o)
 .xtensa.info   0x00000000        0x0 user/.output/eagle/debug/lib/libuser.a(af-buffer.o)
 .xtensa.info   0x00000000        0x0 user/.output/eagle/debug/lib/libuser.a(tcp-socket.o)
 .xtensa.info   0x00000000        0x0 ../../codec-mpeg/.output/eagle/debug/lib/libcodec-mpeg.a(codec-mpeg.o)
 .xtensa.info   0x00000000        0x0 ../../codec-mpeg/.output/eagle/debug/lib/libcodec-mpeg.a(frame.o)
 .xtensa.info   0x00000000        0x0 ../../codec-mpeg/.output/eagle/debug/lib/libcodec-mpeg.a(layer3.o)
 .xtensa.info   0x00000000        0x0 ../../codec-mpeg/.output/eagle/debug/lib/libcodec-mpeg.a(stream.o)
 .xtensa.info   0x00000000        0x0 ../../codec-mpeg/.output/eagle/debug/lib/libcodec-mpeg.a(synth_stereo.o)
 .xtensa.info   0x00000000        0x0 ../../codec-mpeg/.output/eagle/debug/lib/libcodec-mpeg.a(timer.o)
 .xtensa.info   0x00000000        0x0 ../../codec-mpeg/.output/eagle/debug/lib/libcodec-mpeg.a(align.o)
 .xtensa.info   0x00000000        0x0 ../../codec-mpeg/.output/eagle/debug/lib/libcodec-mpeg.a(bit.o)
 .xtensa.info   0x00000000        0x0 ../../codec-mpeg/.output/eagle/debug/lib/libcodec-mpeg.a(huffman.o)
 .xtensa.info   0x00000000        0x0 ../../adif-esp-i2s-dsm/.output/eagle/debug/lib/libadif-esp-i2s-dsm.a(adif-esp-i2s-dsm.o)
 .xtensa.info   0x00000000        0x0 driver/.output/eagle/debug/lib/libdriver.a(i2s_freertos.o)
 .xtensa.info   0x00000000        0x0 driver/.output/eagle/debug/lib/libdriver.a(uart.o)
 .xtensa.info   0x00000000        0x0 /opt/xtensa-lx106-elf/bin/../lib/gcc/xtensa-lx106-elf/4.8.2/libgcc.a(_divsi3.o)
 .xtensa.info   0x00000000        0x0 /opt/xtensa-lx106-elf/bin/../lib/gcc/xtensa-lx106-elf/4.8.2/libgcc.a(_modsi3.o)
 .xtensa.info   0x00000000        0x0 /opt/xtensa-lx106-elf/bin/../lib/gcc/xtensa-lx106-elf/4.8.2/libgcc.a(_udivsi3.o)
 .xtensa.info   0x00000000        0x0 /opt/xtensa-lx106-elf/bin/../lib/gcc/xtensa-lx106-elf/4.8.2/libgcc.a(_umodsi3.o)
 .xtensa.info   0x00000000        0x0 /opt/xtensa-lx106-elf/bin/../lib/gcc/xtensa-lx106-elf/4.8.2/libhal.a(clock.o)
 .xtensa.info   0x00000000        0x0 /opt/xtensa-lx106-elf/bin/../lib/gcc/xtensa-lx106-elf/4.8.2/libhal.a(int_asm--set_intset.o)
 .xtensa.info   0x00000000        0x0 ../lib/libphy.a(phy.o)
 .xtensa.info   0x00000000        0x0 ../lib/libphy.a(phy_chip_v5_ana_romfunc.o)
 .xtensa.info   0x00000000        0x0 ../lib/libphy.a(phy_chip_v5_romfunc.o)
 .xtensa.info   0x00000000        0x0 ../lib/libphy.a(phy_chip_v6_ana.o)
 .xtensa.info   0x00000000        0x0 ../lib/libphy.a(phy_chip_v6.o)
 .xtensa.info   0x00000000        0x0 ../lib/libphy.a(phy_chip_v6_cal.o)
 .xtensa.info   0x00000000        0x0 ../lib/libphy.a(phy_chip_v6_unused.o)
 .xtensa.info   0x00000000        0x0 ../lib/libphy.a(phy_sleep.o)
 .xtensa.info   0x00000000        0x0 ../lib/libphy.a(phy_chip_v5_cal_romfunc.o)
 .xtensa.info   0x00000000        0x0 ../lib/libpp.a(lmac.o)
 .xtensa.info   0x00000000        0x0 ../lib/libpp.a(pm.o)
 .xtensa.info   0x00000000        0x0 ../lib/libpp.a(pp.o)
 .xtensa.info   0x00000000        0x0 ../lib/libpp.a(rate_control.o)
 .xtensa.info   0x00000000        0x0 ../lib/libpp.a(trc.o)
 .xtensa.info   0x00000000        0x0 ../lib/libpp.a(wdev.o)
 .xtensa.info   0x00000000        0x0 ../lib/libpp.a(esf_buf.o)
 .xtensa.info   0x00000000        0x0 ../lib/libpp.a(if_hwctrl.o)
 .xtensa.info   0x00000000        0x0 ../lib/libnet80211.a(ieee80211.o)
 .xtensa.info   0x00000000        0x0 ../lib/libnet80211.a(ieee80211_crypto.o)
 .xtensa.info   0x00000000        0x0 ../lib/libnet80211.a(ieee80211_ets.o)
 .xtensa.info   0x00000000        0x0 ../lib/libnet80211.a(ieee80211_hostap.o)
 .xtensa.info   0x00000000        0x0 ../lib/libnet80211.a(ieee80211_ht.o)
 .xtensa.info   0x00000000        0x0 ../lib/libnet80211.a(ieee80211_input.o)
 .xtensa.info   0x00000000        0x0 ../lib/libnet80211.a(ieee80211_output.o)
 .xtensa.info   0x00000000        0x0 ../lib/libnet80211.a(ieee80211_phy.o)
 .xtensa.info   0x00000000        0x0 ../lib/libnet80211.a(ieee80211_power.o)
 .xtensa.info   0x00000000        0x0 ../lib/libnet80211.a(ieee80211_proto.o)
 .xtensa.info   0x00000000        0x0 ../lib/libnet80211.a(ieee80211_scan.o)
 .xtensa.info   0x00000000        0x0 ../lib/libnet80211.a(ieee80211_sta.o)
 .xtensa.info   0x00000000        0x0 ../lib/libnet80211.a(wl_chm.o)
 .xtensa.info   0x00000000        0x0 ../lib/libnet80211.a(wl_cnx.o)
 .xtensa.info   0x00000000        0x0 ../lib/libnet80211.a(ieee80211_action.o)
 .xtensa.info   0x00000000        0x0 ../lib/libwpa.a(ap_config.o)
 .xtensa.info   0x00000000        0x0 ../lib/libwpa.a(common.o)
 .xtensa.info   0x00000000        0x0 ../lib/libwpa.a(os_xtensa.o)
 .xtensa.info   0x00000000        0x0 ../lib/libwpa.a(sha1-pbkdf2.o)
 .xtensa.info   0x00000000        0x0 ../lib/libwpa.a(wpa_auth.o)
 .xtensa.info   0x00000000        0x0 ../lib/libwpa.a(wpa_auth_ie.o)
 .xtensa.info   0x00000000        0x0 ../lib/libwpa.a(wpa.o)
 .xtensa.info   0x00000000        0x0 ../lib/libwpa.a(wpa_common.o)
 .xtensa.info   0x00000000        0x0 ../lib/libwpa.a(wpa_debug.o)
 .xtensa.info   0x00000000        0x0 ../lib/libwpa.a(wpa_ie.o)
 .xtensa.info   0x00000000        0x0 ../lib/libwpa.a(wpa_main.o)
 .xtensa.info   0x00000000        0x0 ../lib/libwpa.a(wpas_glue.o)
 .xtensa.info   0x00000000        0x0 ../lib/libwpa.a(aes-unwrap.o)
 .xtensa.info   0x00000000        0x0 ../lib/libwpa.a(aes-wrap.o)
 .xtensa.info   0x00000000        0x0 ../lib/libwpa.a(md5.o)
 .xtensa.info   0x00000000        0x0 ../lib/libwpa.a(md5-internal.o)
 .xtensa.info   0x00000000        0x0 ../lib/libwpa.a(rc4.o)
 .xtensa.info   0x00000000        0x0 ../lib/libwpa.a(sha1.o)
 .xtensa.info   0x00000000        0x0 ../lib/libwpa.a(sha1-internal.o)
 .xtensa.info   0x00000000        0x0 ../lib/libwpa.a(aes-internal-dec.o)
 .xtensa.info   0x00000000        0x0 ../lib/libwpa.a(aes-internal-enc.o)
 .xtensa.info   0x00000000        0x0 ../lib/libwpa.a(aes-internal.o)
 .xtensa.info   0x00000000        0x0 ../lib/libmain.a(libc.o)
 .xtensa.info   0x00000000        0x0 ../lib/liblwip.a(ethernetif.o)
 .xtensa.info   0x00000000        0x0 ../lib/liblwip.a(netdb.o)
 .xtensa.info   0x00000000        0x0 /opt/xtensa-lx106-elf/bin/../lib/gcc/xtensa-lx106-elf/4.8.2/libgcc.a(_ashrdi3.o)
 .xtensa.info   0x00000000        0x0 /opt/xtensa-lx106-elf/bin/../lib/gcc/xtensa-lx106-elf/4.8.2/libgcc.a(_addsubsf3.o)
 .xtensa.info   0x00000000        0x0 /opt/xtensa-lx106-elf/bin/../lib/gcc/xtensa-lx106-elf/4.8.2/libgcc.a(_mulsf3.o)
 .xtensa.info   0x00000000        0x0 /opt/xtensa-lx106-elf/bin/../lib/gcc/xtensa-lx106-elf/4.8.2/libgcc.a(_divsf3.o)
 .xtensa.info   0x00000000        0x0 /opt/xtensa-lx106-elf/bin/../lib/gcc/xtensa-lx106-elf/4.8.2/libgcc.a(_fixsfsi.o)
 .xtensa.info   0x00000000        0x0 /opt/xtensa-lx106-elf/bin/../lib/gcc/xtensa-lx106-elf/4.8.2/libgcc.a(_fixunssfsi.o)
 .xtensa.info   0x00000000        0x0 /opt/xtensa-lx106-elf/bin/../lib/gcc/xtensa-lx106-elf/4.8.2/libgcc.a(_floatsisf.o)
 .xtensa.info   0x00000000        0x0 /opt/xtensa-lx106-elf/bin/../lib/gcc/xtensa-lx106-elf/4.8.2/libgcc.a(_addsubdf3.o)
 .xtensa.info   0x00000000        0x0 /opt/xtensa-lx106-elf/bin/../lib/gcc/xtensa-lx106-elf/4.8.2/libgcc.a(_muldf3.o)
 .xtensa.info   0x00000000        0x0 /opt/xtensa-lx106-elf/bin/../lib/gcc/xtensa-lx106-elf/4.8.2/libgcc.a(_divdf3.o)
 .xtensa.info   0x00000000        0x0 /opt/xtensa-lx106-elf/bin/../lib/gcc/xtensa-lx106-elf/4.8.2/libgcc.a(_fixdfsi.o)
 .xtensa.info   0x00000000        0x0 /opt/xtensa-lx106-elf/bin/../lib/gcc/xtensa-lx106-elf/4.8.2/libgcc.a(_floatsidf.o)
 .xtensa.info   0x00000000        0x0 /opt/xtensa-lx106-elf/bin/../lib/gcc/xtensa-lx106-elf/4.8.2/libgcc.a(_truncdfsf2.o)
 .xtensa.info   0x00000000        0x0 /opt/xtensa-lx106-elf/bin/../lib/gcc/xtensa-lx106-elf/4.8.2/libgcc.a(_extendsfdf2.o)
 .xtensa.info   0x00000000        0x0 /opt/xtensa-lx106-elf/bin/../lib/gcc/xtensa-lx106-elf/4.8.2/libgcc.a(_muldi3.o)
 .xtensa.info   0x00000000        0x0 /opt/xtensa-lx106-elf/bin/../lib/gcc/xtensa-lx106-elf/4.8.2/libgcc.a(_popcountsi2.o)
 .xtensa.info   0x00000000        0x0 /opt/xtensa-lx106-elf/bin/../lib/gcc/xtensa-lx106-elf/4.8.2/libgcc.a(_divdi3.o)
 .xtensa.info   0x00000000        0x0 /opt/xtensa-lx106-elf/bin/../lib/gcc/xtensa-lx106-elf/4.8.2/libgcc.a(_umoddi3.o)
 .xtensa.info   0x00000000        0x0 /opt/xtensa-lx106-elf/bin/../lib/gcc/xtensa-lx106-elf/4.8.2/libgcc.a(_umulsidi3.o)
 .xtensa.info   0x00000000        0x0 /opt/xtensa-lx106-elf/bin/../lib/gcc/xtensa-lx106-elf/4.8.2/libgcc.a(_popcount_tab.o)
 .xtensa.info   0x00000000        0x0 ../lib/libnet80211.a(ieee80211_crypto_ccmp.o)
 .xtensa.info   0x00000000        0x0 ../lib/libnet80211.a(ieee80211_crypto_tkip.o)
 .xtensa.info   0x00000000        0x0 ../lib/libnet80211.a(ieee80211_crypto_wep.o)

.xt.lit         0x00000000     0x1400
 .xt.lit        0x00000000       0x10 ../lib/libmain.a(xtensa_vectors.o)
                                 0x40 (size before relaxing)
 .xt.lit        0x00000010       0x80 ../lib/libmain.a(app_main.o)
                                 0x88 (size before relaxing)
 .xt.lit        0x00000090       0x38 ../lib/libmain.a(ets_timer.o)
                                 0x60 (size before relaxing)
 .xt.lit        0x000000c8       0x28 ../lib/libmain.a(misc.o)
                                 0x38 (size before relaxing)
 .xt.lit        0x000000f0       0x20 ../lib/libmain.a(printf-stdarg.o)
                                 0x38 (size before relaxing)
 .xt.lit        0x00000110       0x40 ../lib/libmain.a(spi_flash.o)
                                 0x50 (size before relaxing)
 .xt.lit        0x00000150        0x8 ../lib/libmain.a(uart.o)
 .xt.lit        0x00000158      0x158 ../lib/libmain.a(user_interface.o)
                                0x298 (size before relaxing)
 .xt.lit        0x000002b0        0x8 ../lib/libmain.a(os_cpu_a.o)
                                 0x10 (size before relaxing)
 .xt.lit        0x000002b8       0x18 ../lib/libmain.a(timers.o)
 .xt.lit        0x000002d0       0x10 ../lib/libfreertos.a(heap_4.o)
                                 0x38 (size before relaxing)
 .xt.lit        0x000002e0       0x28 ../lib/libfreertos.a(port.o)
                                 0x58 (size before relaxing)
 .xt.lit        0x00000308       0x20 ../lib/libfreertos.a(queue.o)
                                 0x78 (size before relaxing)
 .xt.lit        0x00000328       0x50 ../lib/libfreertos.a(tasks.o)
                                0x148 (size before relaxing)
 .xt.lit        0x00000378       0x18 ../lib/libfreertos.a(timers.o)
                                 0x68 (size before relaxing)
 .xt.lit        0x00000390       0x50 ../lib/liblwip.a(dhcp.o)
                                 0xc0 (size before relaxing)
 .xt.lit        0x000003e0       0x20 ../lib/liblwip.a(dns.o)
                                 0x50 (size before relaxing)
 .xt.lit        0x00000400       0x20 ../lib/liblwip.a(etharp.o)
                                 0x78 (size before relaxing)
 .xt.lit        0x00000420       0x18 ../lib/liblwip.a(ip4_addr.o)
                                 0x20 (size before relaxing)
 .xt.lit        0x00000438       0x10 ../lib/liblwip.a(ip4.o)
                                 0x20 (size before relaxing)
 .xt.lit        0x00000448        0x8 ../lib/liblwip.a(ip_frag.o)
 .xt.lit        0x00000450       0x10 ../lib/liblwip.a(netif.o)
                                 0x40 (size before relaxing)
 .xt.lit        0x00000460       0x18 ../lib/liblwip.a(pbuf.o)
                                 0x58 (size before relaxing)
 .xt.lit        0x00000478        0x8 ../lib/liblwip.a(raw.o)
                                 0x20 (size before relaxing)
 .xt.lit        0x00000480        0x8 ../lib/liblwip.a(sys_arch.o)
                                 0x98 (size before relaxing)
 .xt.lit        0x00000488       0x28 ../lib/liblwip.a(tcp_in.o)
                                 0x38 (size before relaxing)
 .xt.lit        0x000004b0       0x20 ../lib/liblwip.a(tcpip.o)
                                 0x68 (size before relaxing)
 .xt.lit        0x000004d0       0x50 ../lib/liblwip.a(tcp.o)
                                 0xc0 (size before relaxing)
 .xt.lit        0x00000520       0x28 ../lib/liblwip.a(tcp_out.o)
                                 0x70 (size before relaxing)
 .xt.lit        0x00000548       0x28 ../lib/liblwip.a(timers.o)
                                 0x50 (size before relaxing)
 .xt.lit        0x00000570        0x8 ../lib/liblwip.a(udp.o)
                                 0x40 (size before relaxing)
 .xt.lit        0x00000578        0x8 ../lib/liblwip.a(icmp.o)
                                 0x10 (size before relaxing)
 .xt.lit        0x00000580        0x0 ../lib/liblwip.a(init.o)
                                  0x8 (size before relaxing)
 .xt.lit        0x00000580       0x40 ../lib/liblwip.a(sockets.o)
                                 0xc0 (size before relaxing)
 .xt.lit        0x000005c0       0x60 ../lib/liblwip.a(api_lib.o)
                                 0x78 (size before relaxing)
 .xt.lit        0x00000620       0x30 ../lib/liblwip.a(api_msg.o)
                                 0xe0 (size before relaxing)
 .xt.lit        0x00000650        0x8 ../lib/liblwip.a(netbuf.o)
                                 0x30 (size before relaxing)
 .xt.lit        0x00000658       0x10 user/.output/eagle/debug/lib/libuser.a(user_main.o)
 .xt.lit        0x00000668       0x18 user/.output/eagle/debug/lib/libuser.a(util-logtrace.o)
                                 0x28 (size before relaxing)
 .xt.lit        0x00000680       0x28 user/.output/eagle/debug/lib/libuser.a(util-terminal.o)
 .xt.lit        0x000006a8       0x30 user/.output/eagle/debug/lib/libuser.a(util-task.o)
                                 0x60 (size before relaxing)
 .xt.lit        0x000006d8       0x28 user/.output/eagle/debug/lib/libuser.a(task-af.o)
 .xt.lit        0x00000700       0x30 user/.output/eagle/debug/lib/libuser.a(http-protocol.o)
                                 0x38 (size before relaxing)
 .xt.lit        0x00000730       0x10 user/.output/eagle/debug/lib/libuser.a(af-interface.o)
 .xt.lit        0x00000740       0x18 user/.output/eagle/debug/lib/libuser.a(af-buffer.o)
                                 0x48 (size before relaxing)
 .xt.lit        0x00000758        0x8 user/.output/eagle/debug/lib/libuser.a(tcp-socket.o)
                                 0x20 (size before relaxing)
 .xt.lit        0x00000760       0x20 ../../codec-mpeg/.output/eagle/debug/lib/libcodec-mpeg.a(codec-mpeg.o)
 .xt.lit        0x00000780       0x28 ../../codec-mpeg/.output/eagle/debug/lib/libcodec-mpeg.a(frame.o)
 .xt.lit        0x000007a8       0x38 ../../codec-mpeg/.output/eagle/debug/lib/libcodec-mpeg.a(layer3.o)
 .xt.lit        0x000007e0        0x8 ../../codec-mpeg/.output/eagle/debug/lib/libcodec-mpeg.a(stream.o)
                                 0x20 (size before relaxing)
 .xt.lit        0x000007e8       0x20 ../../codec-mpeg/.output/eagle/debug/lib/libcodec-mpeg.a(synth_stereo.o)
                                 0x28 (size before relaxing)
 .xt.lit        0x00000808       0x28 ../../codec-mpeg/.output/eagle/debug/lib/libcodec-mpeg.a(timer.o)
                                 0x40 (size before relaxing)
 .xt.lit        0x00000830        0x8 ../../codec-mpeg/.output/eagle/debug/lib/libcodec-mpeg.a(bit.o)
 .xt.lit        0x00000838        0x8 ../../adif-esp-i2s-dsm/.output/eagle/debug/lib/libadif-esp-i2s-dsm.a(adif-esp-i2s-dsm.o)
                                 0x18 (size before relaxing)
 .xt.lit        0x00000840       0x20 driver/.output/eagle/debug/lib/libdriver.a(i2s_freertos.o)
                                 0x28 (size before relaxing)
 .xt.lit        0x00000860       0x68 driver/.output/eagle/debug/lib/libdriver.a(uart.o)
                                 0x88 (size before relaxing)
 .xt.lit        0x000008c8       0x10 ../lib/libphy.a(phy.o)
                                 0x68 (size before relaxing)
 .xt.lit        0x000008d8       0x50 ../lib/libphy.a(phy_chip_v5_ana_romfunc.o)
                                 0xd8 (size before relaxing)
 .xt.lit        0x00000928       0x70 ../lib/libphy.a(phy_chip_v5_romfunc.o)
                                 0xd8 (size before relaxing)
 .xt.lit        0x00000998       0x70 ../lib/libphy.a(phy_chip_v6_ana.o)
                                 0xc0 (size before relaxing)
 .xt.lit        0x00000a08      0x118 ../lib/libphy.a(phy_chip_v6.o)
                                0x1f0 (size before relaxing)
 .xt.lit        0x00000b20       0x70 ../lib/libphy.a(phy_chip_v6_cal.o)
                                 0xe0 (size before relaxing)
 .xt.lit        0x00000b90       0x20 ../lib/libphy.a(phy_chip_v6_unused.o)
                                 0x28 (size before relaxing)
 .xt.lit        0x00000bb0       0x68 ../lib/libphy.a(phy_sleep.o)
                                 0xd8 (size before relaxing)
 .xt.lit        0x00000c18       0x30 ../lib/libphy.a(phy_chip_v5_cal_romfunc.o)
                                 0x58 (size before relaxing)
 .xt.lit        0x00000c48       0x58 ../lib/libpp.a(lmac.o)
                                0x108 (size before relaxing)
 .xt.lit        0x00000ca0       0xe0 ../lib/libpp.a(pm.o)
                                0x198 (size before relaxing)
 .xt.lit        0x00000d80       0xc0 ../lib/libpp.a(pp.o)
                                0x1a8 (size before relaxing)
 .xt.lit        0x00000e40       0x18 ../lib/libpp.a(rate_control.o)
                                 0x38 (size before relaxing)
 .xt.lit        0x00000e58       0x60 ../lib/libpp.a(trc.o)
                                 0x90 (size before relaxing)
 .xt.lit        0x00000eb8       0xf0 ../lib/libpp.a(wdev.o)
                                0x198 (size before relaxing)
 .xt.lit        0x00000fa8       0x18 ../lib/libpp.a(esf_buf.o)
                                 0x20 (size before relaxing)
 .xt.lit        0x00000fc0       0x30 ../lib/libpp.a(if_hwctrl.o)
                                 0x90 (size before relaxing)
 .xt.lit        0x00000ff0       0x10 ../lib/libnet80211.a(ieee80211.o)
                                 0x30 (size before relaxing)
 .xt.lit        0x00001000        0x0 ../lib/libnet80211.a(ieee80211_crypto.o)
                                 0x10 (size before relaxing)
 .xt.lit        0x00001000        0x0 ../lib/libnet80211.a(ieee80211_ets.o)
                                  0x8 (size before relaxing)
 .xt.lit        0x00001000       0x50 ../lib/libnet80211.a(ieee80211_hostap.o)
                                 0x70 (size before relaxing)
 .xt.lit        0x00001050       0x48 ../lib/libnet80211.a(ieee80211_ht.o)
                                 0x68 (size before relaxing)
 .xt.lit        0x00001098       0x20 ../lib/libnet80211.a(ieee80211_input.o)
                                 0x58 (size before relaxing)
 .xt.lit        0x000010b8       0x38 ../lib/libnet80211.a(ieee80211_output.o)
                                 0x80 (size before relaxing)
 .xt.lit        0x000010f0       0x10 ../lib/libnet80211.a(ieee80211_phy.o)
                                 0x38 (size before relaxing)
 .xt.lit        0x00001100        0x8 ../lib/libnet80211.a(ieee80211_power.o)
                                 0x18 (size before relaxing)
 .xt.lit        0x00001108       0x18 ../lib/libnet80211.a(ieee80211_proto.o)
                                 0x20 (size before relaxing)
 .xt.lit        0x00001120       0x48 ../lib/libnet80211.a(ieee80211_scan.o)
                                 0xd8 (size before relaxing)
 .xt.lit        0x00001168        0x0 ../lib/libnet80211.a(ieee80211_sta.o)
                                 0x50 (size before relaxing)
 .xt.lit        0x00001168       0x20 ../lib/libnet80211.a(wl_chm.o)
                                 0x60 (size before relaxing)
 .xt.lit        0x00001188       0x90 ../lib/libnet80211.a(wl_cnx.o)
                                 0xf0 (size before relaxing)
 .xt.lit        0x00001218       0x20 ../lib/libnet80211.a(ieee80211_action.o)
                                 0x30 (size before relaxing)
 .xt.lit        0x00001238       0x10 ../lib/libwpa.a(ap_config.o)
                                 0x40 (size before relaxing)
 .xt.lit        0x00001248        0x8 ../lib/libwpa.a(common.o)
                                 0x10 (size before relaxing)
 .xt.lit        0x00001250        0x8 ../lib/libwpa.a(os_xtensa.o)
                                 0x10 (size before relaxing)
 .xt.lit        0x00001258        0x0 ../lib/libwpa.a(sha1-pbkdf2.o)
                                 0x10 (size before relaxing)
 .xt.lit        0x00001258       0x70 ../lib/libwpa.a(wpa_auth.o)
                                0x100 (size before relaxing)
 .xt.lit        0x000012c8        0x8 ../lib/libwpa.a(wpa_auth_ie.o)
                                 0x38 (size before relaxing)
 .xt.lit        0x000012d0       0x40 ../lib/libwpa.a(wpa.o)
                                0x110 (size before relaxing)
 .xt.lit        0x00001310       0x20 ../lib/libwpa.a(wpa_common.o)
                                 0x58 (size before relaxing)
 .xt.lit        0x00001330        0x0 ../lib/libwpa.a(wpa_ie.o)
                                 0x18 (size before relaxing)
 .xt.lit        0x00001330       0x10 ../lib/libwpa.a(wpa_main.o)
                                 0x48 (size before relaxing)
 .xt.lit        0x00001340        0x0 ../lib/libwpa.a(wpas_glue.o)
                                 0x10 (size before relaxing)
 .xt.lit        0x00001340        0x0 ../lib/libwpa.a(aes-unwrap.o)
                                  0x8 (size before relaxing)
 .xt.lit        0x00001340        0x0 ../lib/libwpa.a(aes-wrap.o)
                                  0x8 (size before relaxing)
 .xt.lit        0x00001340        0x0 ../lib/libwpa.a(md5.o)
                                  0x8 (size before relaxing)
 .xt.lit        0x00001340       0x10 ../lib/libwpa.a(md5-internal.o)
                                 0x20 (size before relaxing)
 .xt.lit        0x00001350        0x0 ../lib/libwpa.a(sha1.o)
                                 0x10 (size before relaxing)
 .xt.lit        0x00001350       0x18 ../lib/libwpa.a(sha1-internal.o)
                                 0x20 (size before relaxing)
 .xt.lit        0x00001368       0x18 ../lib/libwpa.a(aes-internal-dec.o)
                                 0x20 (size before relaxing)
 .xt.lit        0x00001380        0x0 ../lib/libwpa.a(aes-internal-enc.o)
                                 0x18 (size before relaxing)
 .xt.lit        0x00001380        0x8 ../lib/libwpa.a(aes-internal.o)
 .xt.lit        0x00001388       0x28 ../lib/libmain.a(libc.o)
                                 0x30 (size before relaxing)
 .xt.lit        0x000013b0       0x10 ../lib/liblwip.a(ethernetif.o)
                                 0x18 (size before relaxing)
 .xt.lit        0x000013c0       0x10 ../lib/liblwip.a(netdb.o)
                                 0x20 (size before relaxing)
 .xt.lit        0x000013d0        0x8 /opt/xtensa-lx106-elf/bin/../lib/gcc/xtensa-lx106-elf/4.8.2/libgcc.a(_addsubsf3.o)
 .xt.lit        0x000013d8        0x0 /opt/xtensa-lx106-elf/bin/../lib/gcc/xtensa-lx106-elf/4.8.2/libgcc.a(_mulsf3.o)
                                  0x8 (size before relaxing)
 .xt.lit        0x000013d8        0x0 /opt/xtensa-lx106-elf/bin/../lib/gcc/xtensa-lx106-elf/4.8.2/libgcc.a(_divsf3.o)
                                  0x8 (size before relaxing)
 .xt.lit        0x000013d8        0x0 /opt/xtensa-lx106-elf/bin/../lib/gcc/xtensa-lx106-elf/4.8.2/libgcc.a(_fixsfsi.o)
                                  0x8 (size before relaxing)
 .xt.lit        0x000013d8        0x0 /opt/xtensa-lx106-elf/bin/../lib/gcc/xtensa-lx106-elf/4.8.2/libgcc.a(_fixunssfsi.o)
                                  0x8 (size before relaxing)
 .xt.lit        0x000013d8        0x8 /opt/xtensa-lx106-elf/bin/../lib/gcc/xtensa-lx106-elf/4.8.2/libgcc.a(_addsubdf3.o)
 .xt.lit        0x000013e0        0x8 /opt/xtensa-lx106-elf/bin/../lib/gcc/xtensa-lx106-elf/4.8.2/libgcc.a(_muldf3.o)
 .xt.lit        0x000013e8        0x0 /opt/xtensa-lx106-elf/bin/../lib/gcc/xtensa-lx106-elf/4.8.2/libgcc.a(_divdf3.o)
                                  0x8 (size before relaxing)
 .xt.lit        0x000013e8        0x0 /opt/xtensa-lx106-elf/bin/../lib/gcc/xtensa-lx106-elf/4.8.2/libgcc.a(_fixdfsi.o)
                                  0x8 (size before relaxing)
 .xt.lit        0x000013e8        0x8 /opt/xtensa-lx106-elf/bin/../lib/gcc/xtensa-lx106-elf/4.8.2/libgcc.a(_truncdfsf2.o)
 .xt.lit        0x000013f0        0x0 /opt/xtensa-lx106-elf/bin/../lib/gcc/xtensa-lx106-elf/4.8.2/libgcc.a(_extendsfdf2.o)
                                  0x8 (size before relaxing)
 .xt.lit        0x000013f0        0x0 /opt/xtensa-lx106-elf/bin/../lib/gcc/xtensa-lx106-elf/4.8.2/libgcc.a(_muldi3.o)
                                  0x8 (size before relaxing)
 .xt.lit        0x000013f0        0x8 /opt/xtensa-lx106-elf/bin/../lib/gcc/xtensa-lx106-elf/4.8.2/libgcc.a(_popcountsi2.o)
 .xt.lit        0x000013f8        0x0 /opt/xtensa-lx106-elf/bin/../lib/gcc/xtensa-lx106-elf/4.8.2/libgcc.a(_divdi3.o)
                                  0x8 (size before relaxing)
 .xt.lit        0x000013f8        0x0 /opt/xtensa-lx106-elf/bin/../lib/gcc/xtensa-lx106-elf/4.8.2/libgcc.a(_umoddi3.o)
                                  0x8 (size before relaxing)
 .xt.lit        0x000013f8        0x0 ../lib/libnet80211.a(ieee80211_crypto_ccmp.o)
                                  0x8 (size before relaxing)
 .xt.lit        0x000013f8        0x8 ../lib/libnet80211.a(ieee80211_crypto_tkip.o)
                                 0x10 (size before relaxing)
 .xt.lit        0x00001400        0x0 ../lib/libnet80211.a(ieee80211_crypto_wep.o)
                                  0x8 (size before relaxing)

.xt.prop        0x00000000    0x280b0
 .xt.prop       0x00000000      0x144 ../lib/libmain.a(xtensa_vectors.o)
                                0x18c (size before relaxing)
 .xt.prop       0x00000144      0x5ac ../lib/libmain.a(app_main.o)
                                0x5f4 (size before relaxing)
 .xt.prop       0x000006f0      0x3d8 ../lib/libmain.a(ets_timer.o)
                                0x438 (size before relaxing)
 .xt.prop       0x00000ac8      0x120 ../lib/libmain.a(misc.o)
                                0x138 (size before relaxing)
 .xt.prop       0x00000be8      0x504 ../lib/libmain.a(printf-stdarg.o)
 .xt.prop       0x000010ec      0x2a0 ../lib/libmain.a(spi_flash.o)
                                0x2b8 (size before relaxing)
 .xt.prop       0x0000138c       0x60 ../lib/libmain.a(uart.o)
                                 0x6c (size before relaxing)
 .xt.prop       0x000013ec     0x1c74 ../lib/libmain.a(user_interface.o)
                               0x1d4c (size before relaxing)
 .xt.prop       0x00003060      0x138 ../lib/libmain.a(os_cpu_a.o)
                                0x144 (size before relaxing)
 .xt.prop       0x00003198       0x30 ../lib/libmain.a(xtensa_context.o)
 .xt.prop       0x000031c8       0xe4 ../lib/libmain.a(timers.o)
                                 0xfc (size before relaxing)
 .xt.prop       0x000032ac      0x258 ../lib/libfreertos.a(heap_4.o)
                                0x2ac (size before relaxing)
 .xt.prop       0x00003504      0x2b8 ../lib/libfreertos.a(port.o)
                                0x30c (size before relaxing)
 .xt.prop       0x000037bc      0x5ac ../lib/libfreertos.a(queue.o)
 .xt.prop       0x00003d68      0xb94 ../lib/libfreertos.a(tasks.o)
                                0xc9c (size before relaxing)
 .xt.prop       0x000048fc      0x3f0 ../lib/libfreertos.a(timers.o)
                                0x444 (size before relaxing)
 .xt.prop       0x00004cec       0xc0 ../lib/libfreertos.a(list.o)
                                 0xd8 (size before relaxing)
 .xt.prop       0x00004dac      0xc9c ../lib/liblwip.a(dhcp.o)
                                0xcc0 (size before relaxing)
 .xt.prop       0x00005a48      0x444 ../lib/liblwip.a(dns.o)
                                0x4a4 (size before relaxing)
 .xt.prop       0x00005e8c      0x690 ../lib/liblwip.a(etharp.o)
                                0x6a8 (size before relaxing)
 .xt.prop       0x0000651c      0x2ac ../lib/liblwip.a(ip4_addr.o)
                                0x2c4 (size before relaxing)
 .xt.prop       0x000067c8      0x2b8 ../lib/liblwip.a(ip4.o)
                                0x2d0 (size before relaxing)
 .xt.prop       0x00006a80       0x90 ../lib/liblwip.a(ip_frag.o)
 .xt.prop       0x00006b10        0x0 ../lib/liblwip.a(memp.o)
                                  0xc (size before relaxing)
 .xt.prop       0x00006b10      0x2f4 ../lib/liblwip.a(netif.o)
                                0x330 (size before relaxing)
 .xt.prop       0x00006e04      0x744 ../lib/liblwip.a(pbuf.o)
                                0x750 (size before relaxing)
 .xt.prop       0x00007548      0x270 ../lib/liblwip.a(raw.o)
                                0x27c (size before relaxing)
 .xt.prop       0x000077b8       0x18 ../lib/liblwip.a(stats.o)
                                 0x30 (size before relaxing)
 .xt.prop       0x000077d0      0x36c ../lib/liblwip.a(sys_arch.o)
                                0x384 (size before relaxing)
 .xt.prop       0x00007b3c      0xb94 ../lib/liblwip.a(tcp_in.o)
                                0xc0c (size before relaxing)
 .xt.prop       0x000086d0      0x3b4 ../lib/liblwip.a(tcpip.o)
                                0x3f0 (size before relaxing)
 .xt.prop       0x00008a84      0xe10 ../lib/liblwip.a(tcp.o)
                                0xea0 (size before relaxing)
 .xt.prop       0x00009894      0x7d4 ../lib/liblwip.a(tcp_out.o)
 .xt.prop       0x0000a068      0x2b8 ../lib/liblwip.a(timers.o)
                                0x2dc (size before relaxing)
 .xt.prop       0x0000a320      0x540 ../lib/liblwip.a(udp.o)
                                0x564 (size before relaxing)
 .xt.prop       0x0000a860      0x114 ../lib/liblwip.a(icmp.o)
 .xt.prop       0x0000a974      0x1b0 ../lib/liblwip.a(inet_chksum.o)
                                0x1bc (size before relaxing)
 .xt.prop       0x0000ab24       0x24 ../lib/liblwip.a(init.o)
 .xt.prop       0x0000ab48     0x1428 ../lib/liblwip.a(sockets.o)
                               0x1464 (size before relaxing)
 .xt.prop       0x0000bf70      0x6f0 ../lib/liblwip.a(api_lib.o)
 .xt.prop       0x0000c660      0xcd8 ../lib/liblwip.a(api_msg.o)
 .xt.prop       0x0000d338      0x24c ../lib/liblwip.a(netbuf.o)
 .xt.prop       0x0000d584       0x6c user/.output/eagle/debug/lib/libuser.a(user_main.o)
 .xt.prop       0x0000d5f0      0x108 user/.output/eagle/debug/lib/libuser.a(util-logtrace.o)
                                0x12c (size before relaxing)
 .xt.prop       0x0000d6f8      0x474 user/.output/eagle/debug/lib/libuser.a(util-terminal.o)
                                0x480 (size before relaxing)
 .xt.prop       0x0000db6c      0x1ec user/.output/eagle/debug/lib/libuser.a(util-task.o)
 .xt.prop       0x0000dd58      0x1e0 user/.output/eagle/debug/lib/libuser.a(task-af.o)
                                0x204 (size before relaxing)
 .xt.prop       0x0000df38      0x5b8 user/.output/eagle/debug/lib/libuser.a(http-protocol.o)
 .xt.prop       0x0000e4f0       0xb4 user/.output/eagle/debug/lib/libuser.a(af-interface.o)
                                 0xc0 (size before relaxing)
 .xt.prop       0x0000e5a4      0x1f8 user/.output/eagle/debug/lib/libuser.a(af-buffer.o)
                                0x264 (size before relaxing)
 .xt.prop       0x0000e79c      0x138 user/.output/eagle/debug/lib/libuser.a(tcp-socket.o)
                                0x144 (size before relaxing)
 .xt.prop       0x0000e8d4      0x1b0 ../../codec-mpeg/.output/eagle/debug/lib/libcodec-mpeg.a(codec-mpeg.o)
                                0x1c8 (size before relaxing)
 .xt.prop       0x0000ea84      0x474 ../../codec-mpeg/.output/eagle/debug/lib/libcodec-mpeg.a(frame.o)
                                0x48c (size before relaxing)
 .xt.prop       0x0000eef8      0xffc ../../codec-mpeg/.output/eagle/debug/lib/libcodec-mpeg.a(layer3.o)
                               0x10bc (size before relaxing)
 .xt.prop       0x0000fef4      0x288 ../../codec-mpeg/.output/eagle/debug/lib/libcodec-mpeg.a(stream.o)
 .xt.prop       0x0001017c      0x1f8 ../../codec-mpeg/.output/eagle/debug/lib/libcodec-mpeg.a(synth_stereo.o)
 .xt.prop       0x00010374      0x72c ../../codec-mpeg/.output/eagle/debug/lib/libcodec-mpeg.a(timer.o)
 .xt.prop       0x00010aa0       0x84 ../../codec-mpeg/.output/eagle/debug/lib/libcodec-mpeg.a(align.o)
 .xt.prop       0x00010b24      0x198 ../../codec-mpeg/.output/eagle/debug/lib/libcodec-mpeg.a(bit.o)
 .xt.prop       0x00010cbc       0xf0 ../../codec-mpeg/.output/eagle/debug/lib/libcodec-mpeg.a(huffman.o)
 .xt.prop       0x00010dac       0xf0 ../../adif-esp-i2s-dsm/.output/eagle/debug/lib/libadif-esp-i2s-dsm.a(adif-esp-i2s-dsm.o)
                                0x114 (size before relaxing)
 .xt.prop       0x00010e9c      0x15c driver/.output/eagle/debug/lib/libdriver.a(i2s_freertos.o)
                                0x1a4 (size before relaxing)
 .xt.prop       0x00010ff8      0x444 driver/.output/eagle/debug/lib/libdriver.a(uart.o)
 .xt.prop       0x0001143c       0x9c /opt/xtensa-lx106-elf/bin/../lib/gcc/xtensa-lx106-elf/4.8.2/libgcc.a(_divsi3.o)
 .xt.prop       0x000114d8       0x84 /opt/xtensa-lx106-elf/bin/../lib/gcc/xtensa-lx106-elf/4.8.2/libgcc.a(_modsi3.o)
 .xt.prop       0x0001155c       0x9c /opt/xtensa-lx106-elf/bin/../lib/gcc/xtensa-lx106-elf/4.8.2/libgcc.a(_udivsi3.o)
 .xt.prop       0x000115f8       0x78 /opt/xtensa-lx106-elf/bin/../lib/gcc/xtensa-lx106-elf/4.8.2/libgcc.a(_umodsi3.o)
 .xt.prop       0x00011670       0x6c /opt/xtensa-lx106-elf/bin/../lib/gcc/xtensa-lx106-elf/4.8.2/libhal.a(clock.o)
 .xt.prop       0x000116dc       0x18 /opt/xtensa-lx106-elf/bin/../lib/gcc/xtensa-lx106-elf/4.8.2/libhal.a(int_asm--set_intset.o)
 .xt.prop       0x000116f4      0x1d4 ../lib/libphy.a(phy.o)
                                0x1e0 (size before relaxing)
 .xt.prop       0x000118c8      0xa08 ../lib/libphy.a(phy_chip_v5_ana_romfunc.o)
 .xt.prop       0x000122d0      0x5d0 ../lib/libphy.a(phy_chip_v5_romfunc.o)
                                0x5e8 (size before relaxing)
 .xt.prop       0x000128a0      0xca8 ../lib/libphy.a(phy_chip_v6_ana.o)
 .xt.prop       0x00013548     0x1cd4 ../lib/libphy.a(phy_chip_v6.o)
                               0x1ec0 (size before relaxing)
 .xt.prop       0x0001521c      0xe70 ../lib/libphy.a(phy_chip_v6_cal.o)
                                0xec4 (size before relaxing)
 .xt.prop       0x0001608c      0x15c ../lib/libphy.a(phy_chip_v6_unused.o)
                                0x168 (size before relaxing)
 .xt.prop       0x000161e8      0x870 ../lib/libphy.a(phy_sleep.o)
                                0x8c4 (size before relaxing)
 .xt.prop       0x00016a58      0x6f0 ../lib/libphy.a(phy_chip_v5_cal_romfunc.o)
                                0x6fc (size before relaxing)
 .xt.prop       0x00017148     0x10d4 ../lib/libpp.a(lmac.o)
                               0x1128 (size before relaxing)
 .xt.prop       0x0001821c     0x1428 ../lib/libpp.a(pm.o)
                               0x1524 (size before relaxing)
 .xt.prop       0x00019644     0x1710 ../lib/libpp.a(pp.o)
                               0x1890 (size before relaxing)
 .xt.prop       0x0001ad54      0x1b0 ../lib/libpp.a(rate_control.o)
                                0x1d4 (size before relaxing)
 .xt.prop       0x0001af04      0xd14 ../lib/libpp.a(trc.o)
                                0xd8c (size before relaxing)
 .xt.prop       0x0001bc18     0x1080 ../lib/libpp.a(wdev.o)
                               0x1134 (size before relaxing)
 .xt.prop       0x0001cc98      0x318 ../lib/libpp.a(esf_buf.o)
                                0x384 (size before relaxing)
 .xt.prop       0x0001cfb0      0x390 ../lib/libpp.a(if_hwctrl.o)
                                0x3a8 (size before relaxing)
 .xt.prop       0x0001d340      0x2b8 ../lib/libnet80211.a(ieee80211.o)
                                0x2dc (size before relaxing)
 .xt.prop       0x0001d5f8      0x120 ../lib/libnet80211.a(ieee80211_crypto.o)
                                0x12c (size before relaxing)
 .xt.prop       0x0001d718       0x54 ../lib/libnet80211.a(ieee80211_ets.o)
 .xt.prop       0x0001d76c      0x8c4 ../lib/libnet80211.a(ieee80211_hostap.o)
                                0x924 (size before relaxing)
 .xt.prop       0x0001e030      0x60c ../lib/libnet80211.a(ieee80211_ht.o)
 .xt.prop       0x0001e63c      0x78c ../lib/libnet80211.a(ieee80211_input.o)
 .xt.prop       0x0001edc8      0xa68 ../lib/libnet80211.a(ieee80211_output.o)
                                0xa74 (size before relaxing)
 .xt.prop       0x0001f830      0x24c ../lib/libnet80211.a(ieee80211_phy.o)
 .xt.prop       0x0001fa7c      0x168 ../lib/libnet80211.a(ieee80211_power.o)
                                0x174 (size before relaxing)
 .xt.prop       0x0001fbe4      0x1f8 ../lib/libnet80211.a(ieee80211_proto.o)
                                0x204 (size before relaxing)
 .xt.prop       0x0001fddc      0x9e4 ../lib/libnet80211.a(ieee80211_scan.o)
                                0xa5c (size before relaxing)
 .xt.prop       0x000207c0      0x810 ../lib/libnet80211.a(ieee80211_sta.o)
 .xt.prop       0x00020fd0      0x2e8 ../lib/libnet80211.a(wl_chm.o)
                                0x2f4 (size before relaxing)
 .xt.prop       0x000212b8      0xc18 ../lib/libnet80211.a(wl_cnx.o)
                                0xc48 (size before relaxing)
 .xt.prop       0x00021ed0      0x2e8 ../lib/libnet80211.a(ieee80211_action.o)
                                0x2f4 (size before relaxing)
 .xt.prop       0x000221b8      0x2a0 ../lib/libwpa.a(ap_config.o)
                                0x2ac (size before relaxing)
 .xt.prop       0x00022458      0x1c8 ../lib/libwpa.a(common.o)
                                0x1d4 (size before relaxing)
 .xt.prop       0x00022620       0x78 ../lib/libwpa.a(os_xtensa.o)
                                 0x84 (size before relaxing)
 .xt.prop       0x00022698       0xc0 ../lib/libwpa.a(sha1-pbkdf2.o)
 .xt.prop       0x00022758     0x1548 ../lib/libwpa.a(wpa_auth.o)
                               0x1578 (size before relaxing)
 .xt.prop       0x00023ca0      0x414 ../lib/libwpa.a(wpa_auth_ie.o)
 .xt.prop       0x000240b4      0xc0c ../lib/libwpa.a(wpa.o)
                                0xc3c (size before relaxing)
 .xt.prop       0x00024cc0      0x720 ../lib/libwpa.a(wpa_common.o)
                                0x72c (size before relaxing)
 .xt.prop       0x000253e0       0x30 ../lib/libwpa.a(wpa_debug.o)
                                 0x3c (size before relaxing)
 .xt.prop       0x00025410      0x348 ../lib/libwpa.a(wpa_ie.o)
 .xt.prop       0x00025758      0x234 ../lib/libwpa.a(wpa_main.o)
 .xt.prop       0x0002598c      0x108 ../lib/libwpa.a(wpas_glue.o)
 .xt.prop       0x00025a94       0x6c ../lib/libwpa.a(aes-unwrap.o)
 .xt.prop       0x00025b00       0x60 ../lib/libwpa.a(aes-wrap.o)
 .xt.prop       0x00025b60       0xa8 ../lib/libwpa.a(md5.o)
 .xt.prop       0x00025c08      0x138 ../lib/libwpa.a(md5-internal.o)
                                0x144 (size before relaxing)
 .xt.prop       0x00025d40       0x78 ../lib/libwpa.a(rc4.o)
                                 0x84 (size before relaxing)
 .xt.prop       0x00025db8      0x108 ../lib/libwpa.a(sha1.o)
 .xt.prop       0x00025ec0      0x138 ../lib/libwpa.a(sha1-internal.o)
                                0x150 (size before relaxing)
 .xt.prop       0x00025ff8      0x108 ../lib/libwpa.a(aes-internal-dec.o)
                                0x114 (size before relaxing)
 .xt.prop       0x00026100       0xcc ../lib/libwpa.a(aes-internal-enc.o)
 .xt.prop       0x000261cc       0x3c ../lib/libwpa.a(aes-internal.o)
                                 0x54 (size before relaxing)
 .xt.prop       0x00026208      0x474 ../lib/libmain.a(libc.o)
                                0x498 (size before relaxing)
 .xt.prop       0x0002667c       0xb4 ../lib/liblwip.a(ethernetif.o)
                                 0xc0 (size before relaxing)
 .xt.prop       0x00026730      0x1bc ../lib/liblwip.a(netdb.o)
                                0x204 (size before relaxing)
 .xt.prop       0x000268ec       0x3c /opt/xtensa-lx106-elf/bin/../lib/gcc/xtensa-lx106-elf/4.8.2/libgcc.a(_ashrdi3.o)
 .xt.prop       0x00026928      0x2e8 /opt/xtensa-lx106-elf/bin/../lib/gcc/xtensa-lx106-elf/4.8.2/libgcc.a(_addsubsf3.o)
 .xt.prop       0x00026c10      0x15c /opt/xtensa-lx106-elf/bin/../lib/gcc/xtensa-lx106-elf/4.8.2/libgcc.a(_mulsf3.o)
                                0x168 (size before relaxing)
 .xt.prop       0x00026d6c      0x15c /opt/xtensa-lx106-elf/bin/../lib/gcc/xtensa-lx106-elf/4.8.2/libgcc.a(_divsf3.o)
                                0x168 (size before relaxing)
 .xt.prop       0x00026ec8       0x60 /opt/xtensa-lx106-elf/bin/../lib/gcc/xtensa-lx106-elf/4.8.2/libgcc.a(_fixsfsi.o)
                                 0x6c (size before relaxing)
 .xt.prop       0x00026f28       0x9c /opt/xtensa-lx106-elf/bin/../lib/gcc/xtensa-lx106-elf/4.8.2/libgcc.a(_fixunssfsi.o)
                                 0xa8 (size before relaxing)
 .xt.prop       0x00026fc4       0x60 /opt/xtensa-lx106-elf/bin/../lib/gcc/xtensa-lx106-elf/4.8.2/libgcc.a(_floatsisf.o)
 .xt.prop       0x00027024      0x408 /opt/xtensa-lx106-elf/bin/../lib/gcc/xtensa-lx106-elf/4.8.2/libgcc.a(_addsubdf3.o)
 .xt.prop       0x0002742c      0x294 /opt/xtensa-lx106-elf/bin/../lib/gcc/xtensa-lx106-elf/4.8.2/libgcc.a(_muldf3.o)
 .xt.prop       0x000276c0      0x258 /opt/xtensa-lx106-elf/bin/../lib/gcc/xtensa-lx106-elf/4.8.2/libgcc.a(_divdf3.o)
                                0x264 (size before relaxing)
 .xt.prop       0x00027918       0x60 /opt/xtensa-lx106-elf/bin/../lib/gcc/xtensa-lx106-elf/4.8.2/libgcc.a(_fixdfsi.o)
                                 0x6c (size before relaxing)
 .xt.prop       0x00027978       0x54 /opt/xtensa-lx106-elf/bin/../lib/gcc/xtensa-lx106-elf/4.8.2/libgcc.a(_floatsidf.o)
 .xt.prop       0x000279cc       0xb4 /opt/xtensa-lx106-elf/bin/../lib/gcc/xtensa-lx106-elf/4.8.2/libgcc.a(_truncdfsf2.o)
 .xt.prop       0x00027a80       0x60 /opt/xtensa-lx106-elf/bin/../lib/gcc/xtensa-lx106-elf/4.8.2/libgcc.a(_extendsfdf2.o)
                                 0x6c (size before relaxing)
 .xt.prop       0x00027ae0       0x24 /opt/xtensa-lx106-elf/bin/../lib/gcc/xtensa-lx106-elf/4.8.2/libgcc.a(_muldi3.o)
                                 0x30 (size before relaxing)
 .xt.prop       0x00027b04       0x3c /opt/xtensa-lx106-elf/bin/../lib/gcc/xtensa-lx106-elf/4.8.2/libgcc.a(_popcountsi2.o)
 .xt.prop       0x00027b40      0x1f8 /opt/xtensa-lx106-elf/bin/../lib/gcc/xtensa-lx106-elf/4.8.2/libgcc.a(_divdi3.o)
                                0x204 (size before relaxing)
 .xt.prop       0x00027d38      0x144 /opt/xtensa-lx106-elf/bin/../lib/gcc/xtensa-lx106-elf/4.8.2/libgcc.a(_umoddi3.o)
                                0x150 (size before relaxing)
 .xt.prop       0x00027e7c       0x3c /opt/xtensa-lx106-elf/bin/../lib/gcc/xtensa-lx106-elf/4.8.2/libgcc.a(_umulsidi3.o)
 .xt.prop       0x00027eb8        0xc /opt/xtensa-lx106-elf/bin/../lib/gcc/xtensa-lx106-elf/4.8.2/libgcc.a(_popcount_tab.o)
 .xt.prop       0x00027ec4       0xb4 ../lib/libnet80211.a(ieee80211_crypto_ccmp.o)
                                 0xc0 (size before relaxing)
 .xt.prop       0x00027f78       0xcc ../lib/libnet80211.a(ieee80211_crypto_tkip.o)
                                 0xe4 (size before relaxing)
 .xt.prop       0x00028044       0x6c ../lib/libnet80211.a(ieee80211_crypto_wep.o)
                                 0x78 (size before relaxing)

.comment        0x00000000     0x1b8f
 .comment       0x00000000       0x46 ../lib/libmain.a(app_main.o)
 .comment       0x00000046       0x47 ../lib/libmain.a(ets_timer.o)
 .comment       0x0000008d       0x42 ../lib/libmain.a(misc.o)
 .comment       0x000000cf       0x4b ../lib/libmain.a(printf-stdarg.o)
 .comment       0x0000011a       0x47 ../lib/libmain.a(spi_flash.o)
 .comment       0x00000161       0x42 ../lib/libmain.a(uart.o)
 .comment       0x000001a3       0x4c ../lib/libmain.a(user_interface.o)
 .comment       0x000001ef       0x44 ../lib/libmain.a(timers.o)
 .comment       0x00000233       0x44 ../lib/libfreertos.a(heap_4.o)
 .comment       0x00000277       0x42 ../lib/libfreertos.a(port.o)
 .comment       0x000002b9       0x43 ../lib/libfreertos.a(queue.o)
 .comment       0x000002fc       0x43 ../lib/libfreertos.a(tasks.o)
 .comment       0x0000033f       0x44 ../lib/libfreertos.a(timers.o)
 .comment       0x00000383       0x42 ../lib/libfreertos.a(list.o)
 .comment       0x000003c5       0x42 ../lib/liblwip.a(dhcp.o)
 .comment       0x00000407       0x41 ../lib/liblwip.a(dns.o)
 .comment       0x00000448       0x44 ../lib/liblwip.a(etharp.o)
 .comment       0x0000048c       0x46 ../lib/liblwip.a(ip4_addr.o)
 .comment       0x000004d2       0x41 ../lib/liblwip.a(ip4.o)
 .comment       0x00000513       0x45 ../lib/liblwip.a(ip_frag.o)
 .comment       0x00000558       0x42 ../lib/liblwip.a(memp.o)
 .comment       0x0000059a       0x43 ../lib/liblwip.a(netif.o)
 .comment       0x000005dd       0x42 ../lib/liblwip.a(pbuf.o)
 .comment       0x0000061f       0x41 ../lib/liblwip.a(raw.o)
 .comment       0x00000660       0x43 ../lib/liblwip.a(stats.o)
 .comment       0x000006a3       0x46 ../lib/liblwip.a(sys_arch.o)
 .comment       0x000006e9       0x44 ../lib/liblwip.a(tcp_in.o)
 .comment       0x0000072d       0x43 ../lib/liblwip.a(tcpip.o)
 .comment       0x00000770       0x41 ../lib/liblwip.a(tcp.o)
 .comment       0x000007b1       0x45 ../lib/liblwip.a(tcp_out.o)
 .comment       0x000007f6       0x44 ../lib/liblwip.a(timers.o)
 .comment       0x0000083a       0x41 ../lib/liblwip.a(udp.o)
 .comment       0x0000087b       0x42 ../lib/liblwip.a(icmp.o)
 .comment       0x000008bd       0x49 ../lib/liblwip.a(inet_chksum.o)
 .comment       0x00000906       0x42 ../lib/liblwip.a(init.o)
 .comment       0x00000948       0x45 ../lib/liblwip.a(sockets.o)
 .comment       0x0000098d       0x45 ../lib/liblwip.a(api_lib.o)
 .comment       0x000009d2       0x45 ../lib/liblwip.a(api_msg.o)
 .comment       0x00000a17       0x44 ../lib/liblwip.a(netbuf.o)
 .comment       0x00000a5b       0x21 user/.output/eagle/debug/lib/libuser.a(user_main.o)
                                 0x22 (size before relaxing)
 .comment       0x00000000       0x22 user/.output/eagle/debug/lib/libuser.a(util-logtrace.o)
 .comment       0x00000000       0x22 user/.output/eagle/debug/lib/libuser.a(util-terminal.o)
 .comment       0x00000000       0x22 user/.output/eagle/debug/lib/libuser.a(util-task.o)
 .comment       0x00000000       0x22 user/.output/eagle/debug/lib/libuser.a(task-af.o)
 .comment       0x00000000       0x22 user/.output/eagle/debug/lib/libuser.a(http-protocol.o)
 .comment       0x00000000       0x22 user/.output/eagle/debug/lib/libuser.a(af-interface.o)
 .comment       0x00000000       0x22 user/.output/eagle/debug/lib/libuser.a(af-buffer.o)
 .comment       0x00000000       0x22 user/.output/eagle/debug/lib/libuser.a(tcp-socket.o)
 .comment       0x00000000       0x22 ../../codec-mpeg/.output/eagle/debug/lib/libcodec-mpeg.a(codec-mpeg.o)
 .comment       0x00000000       0x22 ../../codec-mpeg/.output/eagle/debug/lib/libcodec-mpeg.a(frame.o)
 .comment       0x00000000       0x22 ../../codec-mpeg/.output/eagle/debug/lib/libcodec-mpeg.a(layer3.o)
 .comment       0x00000000       0x22 ../../codec-mpeg/.output/eagle/debug/lib/libcodec-mpeg.a(stream.o)
 .comment       0x00000000       0x22 ../../codec-mpeg/.output/eagle/debug/lib/libcodec-mpeg.a(synth_stereo.o)
 .comment       0x00000000       0x22 ../../codec-mpeg/.output/eagle/debug/lib/libcodec-mpeg.a(timer.o)
 .comment       0x00000000       0x22 ../../codec-mpeg/.output/eagle/debug/lib/libcodec-mpeg.a(align.o)
 .comment       0x00000000       0x22 ../../codec-mpeg/.output/eagle/debug/lib/libcodec-mpeg.a(bit.o)
 .comment       0x00000000       0x22 ../../codec-mpeg/.output/eagle/debug/lib/libcodec-mpeg.a(huffman.o)
 .comment       0x00000000       0x22 ../../adif-esp-i2s-dsm/.output/eagle/debug/lib/libadif-esp-i2s-dsm.a(adif-esp-i2s-dsm.o)
 .comment       0x00000000       0x22 driver/.output/eagle/debug/lib/libdriver.a(i2s_freertos.o)
 .comment       0x00000000       0x22 driver/.output/eagle/debug/lib/libdriver.a(uart.o)
 .comment       0x00000a7c       0x41 ../lib/libphy.a(phy.o)
 .comment       0x00000abd       0x55 ../lib/libphy.a(phy_chip_v5_ana_romfunc.o)
 .comment       0x00000b12       0x51 ../lib/libphy.a(phy_chip_v5_romfunc.o)
 .comment       0x00000b63       0x4d ../lib/libphy.a(phy_chip_v6_ana.o)
 .comment       0x00000bb0       0x49 ../lib/libphy.a(phy_chip_v6.o)
 .comment       0x00000bf9       0x4d ../lib/libphy.a(phy_chip_v6_cal.o)
 .comment       0x00000c46       0x50 ../lib/libphy.a(phy_chip_v6_unused.o)
 .comment       0x00000c96       0x47 ../lib/libphy.a(phy_sleep.o)
 .comment       0x00000cdd       0x55 ../lib/libphy.a(phy_chip_v5_cal_romfunc.o)
 .comment       0x00000d32       0x42 ../lib/libpp.a(lmac.o)
 .comment       0x00000d74       0x40 ../lib/libpp.a(pm.o)
 .comment       0x00000db4       0x40 ../lib/libpp.a(pp.o)
 .comment       0x00000df4       0x4a ../lib/libpp.a(rate_control.o)
 .comment       0x00000e3e       0x41 ../lib/libpp.a(trc.o)
 .comment       0x00000e7f       0x42 ../lib/libpp.a(wdev.o)
 .comment       0x00000ec1       0x45 ../lib/libpp.a(esf_buf.o)
 .comment       0x00000f06       0x47 ../lib/libpp.a(if_hwctrl.o)
 .comment       0x00000f4d       0x47 ../lib/libnet80211.a(ieee80211.o)
 .comment       0x00000f94       0x4e ../lib/libnet80211.a(ieee80211_crypto.o)
 .comment       0x00000fe2       0x4b ../lib/libnet80211.a(ieee80211_ets.o)
 .comment       0x0000102d       0x4e ../lib/libnet80211.a(ieee80211_hostap.o)
 .comment       0x0000107b       0x4a ../lib/libnet80211.a(ieee80211_ht.o)
 .comment       0x000010c5       0x4d ../lib/libnet80211.a(ieee80211_input.o)
 .comment       0x00001112       0x4e ../lib/libnet80211.a(ieee80211_output.o)
 .comment       0x00001160       0x4b ../lib/libnet80211.a(ieee80211_phy.o)
 .comment       0x000011ab       0x4d ../lib/libnet80211.a(ieee80211_power.o)
 .comment       0x000011f8       0x4d ../lib/libnet80211.a(ieee80211_proto.o)
 .comment       0x00001245       0x4c ../lib/libnet80211.a(ieee80211_scan.o)
 .comment       0x00001291       0x4b ../lib/libnet80211.a(ieee80211_sta.o)
 .comment       0x000012dc       0x44 ../lib/libnet80211.a(wl_chm.o)
 .comment       0x00001320       0x44 ../lib/libnet80211.a(wl_cnx.o)
 .comment       0x00001364       0x4e ../lib/libnet80211.a(ieee80211_action.o)
 .comment       0x000013b2       0x47 ../lib/libwpa.a(ap_config.o)
 .comment       0x000013f9       0x44 ../lib/libwpa.a(common.o)
 .comment       0x0000143d       0x47 ../lib/libwpa.a(os_xtensa.o)
 .comment       0x00001484       0x49 ../lib/libwpa.a(sha1-pbkdf2.o)
 .comment       0x000014cd       0x46 ../lib/libwpa.a(wpa_auth.o)
 .comment       0x00001513       0x49 ../lib/libwpa.a(wpa_auth_ie.o)
 .comment       0x0000155c       0x41 ../lib/libwpa.a(wpa.o)
 .comment       0x0000159d       0x48 ../lib/libwpa.a(wpa_common.o)
 .comment       0x000015e5       0x47 ../lib/libwpa.a(wpa_debug.o)
 .comment       0x0000162c       0x44 ../lib/libwpa.a(wpa_ie.o)
 .comment       0x00001670       0x46 ../lib/libwpa.a(wpa_main.o)
 .comment       0x000016b6       0x47 ../lib/libwpa.a(wpas_glue.o)
 .comment       0x000016fd       0x48 ../lib/libwpa.a(aes-unwrap.o)
 .comment       0x00001745       0x46 ../lib/libwpa.a(aes-wrap.o)
 .comment       0x0000178b       0x41 ../lib/libwpa.a(md5.o)
 .comment       0x000017cc       0x4a ../lib/libwpa.a(md5-internal.o)
 .comment       0x00001816       0x41 ../lib/libwpa.a(rc4.o)
 .comment       0x00001857       0x42 ../lib/libwpa.a(sha1.o)
 .comment       0x00001899       0x4b ../lib/libwpa.a(sha1-internal.o)
 .comment       0x000018e4       0x4e ../lib/libwpa.a(aes-internal-dec.o)
 .comment       0x00001932       0x4e ../lib/libwpa.a(aes-internal-enc.o)
 .comment       0x00001980       0x4a ../lib/libwpa.a(aes-internal.o)
 .comment       0x000019ca       0x42 ../lib/libmain.a(libc.o)
 .comment       0x00001a0c       0x48 ../lib/liblwip.a(ethernetif.o)
 .comment       0x00001a54       0x43 ../lib/liblwip.a(netdb.o)
 .comment       0x00000000       0x22 /opt/xtensa-lx106-elf/bin/../lib/gcc/xtensa-lx106-elf/4.8.2/libgcc.a(_muldi3.o)
 .comment       0x00000000       0x22 /opt/xtensa-lx106-elf/bin/../lib/gcc/xtensa-lx106-elf/4.8.2/libgcc.a(_popcountsi2.o)
 .comment       0x00000000       0x22 /opt/xtensa-lx106-elf/bin/../lib/gcc/xtensa-lx106-elf/4.8.2/libgcc.a(_divdi3.o)
 .comment       0x00000000       0x22 /opt/xtensa-lx106-elf/bin/../lib/gcc/xtensa-lx106-elf/4.8.2/libgcc.a(_umoddi3.o)
 .comment       0x00000000       0x22 /opt/xtensa-lx106-elf/bin/../lib/gcc/xtensa-lx106-elf/4.8.2/libgcc.a(_popcount_tab.o)
 .comment       0x00001a97       0x53 ../lib/libnet80211.a(ieee80211_crypto_ccmp.o)
 .comment       0x00001aea       0x53 ../lib/libnet80211.a(ieee80211_crypto_tkip.o)
 .comment       0x00001b3d       0x52 ../lib/libnet80211.a(ieee80211_crypto_wep.o)

.debug_frame    0x00000000     0x10e0
 .debug_frame   0x00000000       0x50 user/.output/eagle/debug/lib/libuser.a(user_main.o)
 .debug_frame   0x00000050       0xa0 user/.output/eagle/debug/lib/libuser.a(util-logtrace.o)
 .debug_frame   0x000000f0       0xf0 user/.output/eagle/debug/lib/libuser.a(util-terminal.o)
 .debug_frame   0x000001e0      0x1a0 user/.output/eagle/debug/lib/libuser.a(util-task.o)
 .debug_frame   0x00000380       0xc0 user/.output/eagle/debug/lib/libuser.a(task-af.o)
 .debug_frame   0x00000440      0x130 user/.output/eagle/debug/lib/libuser.a(http-protocol.o)
 .debug_frame   0x00000570       0x90 user/.output/eagle/debug/lib/libuser.a(af-interface.o)
 .debug_frame   0x00000600      0x120 user/.output/eagle/debug/lib/libuser.a(af-buffer.o)
 .debug_frame   0x00000720       0x90 user/.output/eagle/debug/lib/libuser.a(tcp-socket.o)
 .debug_frame   0x000007b0       0x80 ../../codec-mpeg/.output/eagle/debug/lib/libcodec-mpeg.a(codec-mpeg.o)
 .debug_frame   0x00000830       0xc0 ../../codec-mpeg/.output/eagle/debug/lib/libcodec-mpeg.a(frame.o)
 .debug_frame   0x000008f0      0x100 ../../codec-mpeg/.output/eagle/debug/lib/libcodec-mpeg.a(layer3.o)
 .debug_frame   0x000009f0       0xa0 ../../codec-mpeg/.output/eagle/debug/lib/libcodec-mpeg.a(stream.o)
 .debug_frame   0x00000a90       0xd0 ../../codec-mpeg/.output/eagle/debug/lib/libcodec-mpeg.a(synth_stereo.o)
 .debug_frame   0x00000b60      0x140 ../../codec-mpeg/.output/eagle/debug/lib/libcodec-mpeg.a(timer.o)
 .debug_frame   0x00000ca0       0x30 ../../codec-mpeg/.output/eagle/debug/lib/libcodec-mpeg.a(align.o)
 .debug_frame   0x00000cd0       0x80 ../../codec-mpeg/.output/eagle/debug/lib/libcodec-mpeg.a(bit.o)
 .debug_frame   0x00000d50       0x80 ../../adif-esp-i2s-dsm/.output/eagle/debug/lib/libadif-esp-i2s-dsm.a(adif-esp-i2s-dsm.o)
 .debug_frame   0x00000dd0       0xa0 driver/.output/eagle/debug/lib/libdriver.a(i2s_freertos.o)
 .debug_frame   0x00000e70      0x1c0 driver/.output/eagle/debug/lib/libdriver.a(uart.o)
 .debug_frame   0x00001030       0x30 /opt/xtensa-lx106-elf/bin/../lib/gcc/xtensa-lx106-elf/4.8.2/libgcc.a(_muldi3.o)
 .debug_frame   0x00001060       0x20 /opt/xtensa-lx106-elf/bin/../lib/gcc/xtensa-lx106-elf/4.8.2/libgcc.a(_popcountsi2.o)
 .debug_frame   0x00001080       0x30 /opt/xtensa-lx106-elf/bin/../lib/gcc/xtensa-lx106-elf/4.8.2/libgcc.a(_divdi3.o)
 .debug_frame   0x000010b0       0x30 /opt/xtensa-lx106-elf/bin/../lib/gcc/xtensa-lx106-elf/4.8.2/libgcc.a(_umoddi3.o)

.debug_info     0x00000000     0xe159
 .debug_info    0x00000000      0x48e user/.output/eagle/debug/lib/libuser.a(user_main.o)
 .debug_info    0x0000048e      0x2f7 user/.output/eagle/debug/lib/libuser.a(util-logtrace.o)
 .debug_info    0x00000785      0x54d user/.output/eagle/debug/lib/libuser.a(util-terminal.o)
 .debug_info    0x00000cd2      0x665 user/.output/eagle/debug/lib/libuser.a(util-task.o)
 .debug_info    0x00001337      0x964 user/.output/eagle/debug/lib/libuser.a(task-af.o)
 .debug_info    0x00001c9b      0xf09 user/.output/eagle/debug/lib/libuser.a(http-protocol.o)
 .debug_info    0x00002ba4      0x2eb user/.output/eagle/debug/lib/libuser.a(af-interface.o)
 .debug_info    0x00002e8f      0x484 user/.output/eagle/debug/lib/libuser.a(af-buffer.o)
 .debug_info    0x00003313      0x835 user/.output/eagle/debug/lib/libuser.a(tcp-socket.o)
 .debug_info    0x00003b48      0xd0d ../../codec-mpeg/.output/eagle/debug/lib/libcodec-mpeg.a(codec-mpeg.o)
 .debug_info    0x00004855      0xc42 ../../codec-mpeg/.output/eagle/debug/lib/libcodec-mpeg.a(frame.o)
 .debug_info    0x00005497     0x2d4b ../../codec-mpeg/.output/eagle/debug/lib/libcodec-mpeg.a(layer3.o)
 .debug_info    0x000081e2      0x442 ../../codec-mpeg/.output/eagle/debug/lib/libcodec-mpeg.a(stream.o)
 .debug_info    0x00008624     0x1437 ../../codec-mpeg/.output/eagle/debug/lib/libcodec-mpeg.a(synth_stereo.o)
 .debug_info    0x00009a5b      0x831 ../../codec-mpeg/.output/eagle/debug/lib/libcodec-mpeg.a(timer.o)
 .debug_info    0x0000a28c      0x142 ../../codec-mpeg/.output/eagle/debug/lib/libcodec-mpeg.a(align.o)
 .debug_info    0x0000a3ce      0x392 ../../codec-mpeg/.output/eagle/debug/lib/libcodec-mpeg.a(bit.o)
 .debug_info    0x0000a760      0x522 ../../codec-mpeg/.output/eagle/debug/lib/libcodec-mpeg.a(huffman.o)
 .debug_info    0x0000ac82      0x394 ../../adif-esp-i2s-dsm/.output/eagle/debug/lib/libadif-esp-i2s-dsm.a(adif-esp-i2s-dsm.o)
 .debug_info    0x0000b016      0x5c4 driver/.output/eagle/debug/lib/libdriver.a(i2s_freertos.o)
 .debug_info    0x0000b5da      0xa8e driver/.output/eagle/debug/lib/libdriver.a(uart.o)
 .debug_info    0x0000c068       0xd9 /opt/xtensa-lx106-elf/bin/../lib/gcc/xtensa-lx106-elf/4.8.2/libgcc.a(_divsi3.o)
 .debug_info    0x0000c141       0xd9 /opt/xtensa-lx106-elf/bin/../lib/gcc/xtensa-lx106-elf/4.8.2/libgcc.a(_modsi3.o)
 .debug_info    0x0000c21a       0xd9 /opt/xtensa-lx106-elf/bin/../lib/gcc/xtensa-lx106-elf/4.8.2/libgcc.a(_udivsi3.o)
 .debug_info    0x0000c2f3       0xd9 /opt/xtensa-lx106-elf/bin/../lib/gcc/xtensa-lx106-elf/4.8.2/libgcc.a(_umodsi3.o)
 .debug_info    0x0000c3cc       0xc0 /opt/xtensa-lx106-elf/bin/../lib/gcc/xtensa-lx106-elf/4.8.2/libhal.a(clock.o)
 .debug_info    0x0000c48c       0xc2 /opt/xtensa-lx106-elf/bin/../lib/gcc/xtensa-lx106-elf/4.8.2/libhal.a(int_asm--set_intset.o)
 .debug_info    0x0000c54e       0xd9 /opt/xtensa-lx106-elf/bin/../lib/gcc/xtensa-lx106-elf/4.8.2/libgcc.a(_ashrdi3.o)
 .debug_info    0x0000c627       0xda /opt/xtensa-lx106-elf/bin/../lib/gcc/xtensa-lx106-elf/4.8.2/libgcc.a(_addsubsf3.o)
 .debug_info    0x0000c701       0xda /opt/xtensa-lx106-elf/bin/../lib/gcc/xtensa-lx106-elf/4.8.2/libgcc.a(_mulsf3.o)
 .debug_info    0x0000c7db       0xda /opt/xtensa-lx106-elf/bin/../lib/gcc/xtensa-lx106-elf/4.8.2/libgcc.a(_divsf3.o)
 .debug_info    0x0000c8b5       0xda /opt/xtensa-lx106-elf/bin/../lib/gcc/xtensa-lx106-elf/4.8.2/libgcc.a(_fixsfsi.o)
 .debug_info    0x0000c98f       0xda /opt/xtensa-lx106-elf/bin/../lib/gcc/xtensa-lx106-elf/4.8.2/libgcc.a(_fixunssfsi.o)
 .debug_info    0x0000ca69       0xda /opt/xtensa-lx106-elf/bin/../lib/gcc/xtensa-lx106-elf/4.8.2/libgcc.a(_floatsisf.o)
 .debug_info    0x0000cb43       0xda /opt/xtensa-lx106-elf/bin/../lib/gcc/xtensa-lx106-elf/4.8.2/libgcc.a(_addsubdf3.o)
 .debug_info    0x0000cc1d       0xda /opt/xtensa-lx106-elf/bin/../lib/gcc/xtensa-lx106-elf/4.8.2/libgcc.a(_muldf3.o)
 .debug_info    0x0000ccf7       0xda /opt/xtensa-lx106-elf/bin/../lib/gcc/xtensa-lx106-elf/4.8.2/libgcc.a(_divdf3.o)
 .debug_info    0x0000cdd1       0xda /opt/xtensa-lx106-elf/bin/../lib/gcc/xtensa-lx106-elf/4.8.2/libgcc.a(_fixdfsi.o)
 .debug_info    0x0000ceab       0xda /opt/xtensa-lx106-elf/bin/../lib/gcc/xtensa-lx106-elf/4.8.2/libgcc.a(_floatsidf.o)
 .debug_info    0x0000cf85       0xda /opt/xtensa-lx106-elf/bin/../lib/gcc/xtensa-lx106-elf/4.8.2/libgcc.a(_truncdfsf2.o)
 .debug_info    0x0000d05f       0xda /opt/xtensa-lx106-elf/bin/../lib/gcc/xtensa-lx106-elf/4.8.2/libgcc.a(_extendsfdf2.o)
 .debug_info    0x0000d139      0x174 /opt/xtensa-lx106-elf/bin/../lib/gcc/xtensa-lx106-elf/4.8.2/libgcc.a(_muldi3.o)
 .debug_info    0x0000d2ad       0xff /opt/xtensa-lx106-elf/bin/../lib/gcc/xtensa-lx106-elf/4.8.2/libgcc.a(_popcountsi2.o)
 .debug_info    0x0000d3ac      0x60c /opt/xtensa-lx106-elf/bin/../lib/gcc/xtensa-lx106-elf/4.8.2/libgcc.a(_divdi3.o)
 .debug_info    0x0000d9b8      0x61d /opt/xtensa-lx106-elf/bin/../lib/gcc/xtensa-lx106-elf/4.8.2/libgcc.a(_umoddi3.o)
 .debug_info    0x0000dfd5       0xd9 /opt/xtensa-lx106-elf/bin/../lib/gcc/xtensa-lx106-elf/4.8.2/libgcc.a(_umulsidi3.o)
 .debug_info    0x0000e0ae       0xab /opt/xtensa-lx106-elf/bin/../lib/gcc/xtensa-lx106-elf/4.8.2/libgcc.a(_popcount_tab.o)

.debug_abbrev   0x00000000     0x34ae
 .debug_abbrev  0x00000000      0x1b9 user/.output/eagle/debug/lib/libuser.a(user_main.o)
 .debug_abbrev  0x000001b9      0x1c0 user/.output/eagle/debug/lib/libuser.a(util-logtrace.o)
 .debug_abbrev  0x00000379      0x214 user/.output/eagle/debug/lib/libuser.a(util-terminal.o)
 .debug_abbrev  0x0000058d      0x1d9 user/.output/eagle/debug/lib/libuser.a(util-task.o)
 .debug_abbrev  0x00000766      0x2da user/.output/eagle/debug/lib/libuser.a(task-af.o)
 .debug_abbrev  0x00000a40      0x391 user/.output/eagle/debug/lib/libuser.a(http-protocol.o)
 .debug_abbrev  0x00000dd1      0x12b user/.output/eagle/debug/lib/libuser.a(af-interface.o)
 .debug_abbrev  0x00000efc      0x18a user/.output/eagle/debug/lib/libuser.a(af-buffer.o)
 .debug_abbrev  0x00001086      0x23a user/.output/eagle/debug/lib/libuser.a(tcp-socket.o)
 .debug_abbrev  0x000012c0      0x317 ../../codec-mpeg/.output/eagle/debug/lib/libcodec-mpeg.a(codec-mpeg.o)
 .debug_abbrev  0x000015d7      0x336 ../../codec-mpeg/.output/eagle/debug/lib/libcodec-mpeg.a(frame.o)
 .debug_abbrev  0x0000190d      0x429 ../../codec-mpeg/.output/eagle/debug/lib/libcodec-mpeg.a(layer3.o)
 .debug_abbrev  0x00001d36      0x165 ../../codec-mpeg/.output/eagle/debug/lib/libcodec-mpeg.a(stream.o)
 .debug_abbrev  0x00001e9b      0x282 ../../codec-mpeg/.output/eagle/debug/lib/libcodec-mpeg.a(synth_stereo.o)
 .debug_abbrev  0x0000211d      0x284 ../../codec-mpeg/.output/eagle/debug/lib/libcodec-mpeg.a(timer.o)
 .debug_abbrev  0x000023a1       0x83 ../../codec-mpeg/.output/eagle/debug/lib/libcodec-mpeg.a(align.o)
 .debug_abbrev  0x00002424      0x16f ../../codec-mpeg/.output/eagle/debug/lib/libcodec-mpeg.a(bit.o)
 .debug_abbrev  0x00002593      0x111 ../../codec-mpeg/.output/eagle/debug/lib/libcodec-mpeg.a(huffman.o)
 .debug_abbrev  0x000026a4      0x1d1 ../../adif-esp-i2s-dsm/.output/eagle/debug/lib/libadif-esp-i2s-dsm.a(adif-esp-i2s-dsm.o)
 .debug_abbrev  0x00002875      0x244 driver/.output/eagle/debug/lib/libdriver.a(i2s_freertos.o)
 .debug_abbrev  0x00002ab9      0x316 driver/.output/eagle/debug/lib/libdriver.a(uart.o)
 .debug_abbrev  0x00002dcf       0x14 /opt/xtensa-lx106-elf/bin/../lib/gcc/xtensa-lx106-elf/4.8.2/libgcc.a(_divsi3.o)
 .debug_abbrev  0x00002de3       0x14 /opt/xtensa-lx106-elf/bin/../lib/gcc/xtensa-lx106-elf/4.8.2/libgcc.a(_modsi3.o)
 .debug_abbrev  0x00002df7       0x14 /opt/xtensa-lx106-elf/bin/../lib/gcc/xtensa-lx106-elf/4.8.2/libgcc.a(_udivsi3.o)
 .debug_abbrev  0x00002e0b       0x14 /opt/xtensa-lx106-elf/bin/../lib/gcc/xtensa-lx106-elf/4.8.2/libgcc.a(_umodsi3.o)
 .debug_abbrev  0x00002e1f       0x14 /opt/xtensa-lx106-elf/bin/../lib/gcc/xtensa-lx106-elf/4.8.2/libhal.a(clock.o)
 .debug_abbrev  0x00002e33       0x14 /opt/xtensa-lx106-elf/bin/../lib/gcc/xtensa-lx106-elf/4.8.2/libhal.a(int_asm--set_intset.o)
 .debug_abbrev  0x00002e47       0x14 /opt/xtensa-lx106-elf/bin/../lib/gcc/xtensa-lx106-elf/4.8.2/libgcc.a(_ashrdi3.o)
 .debug_abbrev  0x00002e5b       0x14 /opt/xtensa-lx106-elf/bin/../lib/gcc/xtensa-lx106-elf/4.8.2/libgcc.a(_addsubsf3.o)
 .debug_abbrev  0x00002e6f       0x14 /opt/xtensa-lx106-elf/bin/../lib/gcc/xtensa-lx106-elf/4.8.2/libgcc.a(_mulsf3.o)
 .debug_abbrev  0x00002e83       0x14 /opt/xtensa-lx106-elf/bin/../lib/gcc/xtensa-lx106-elf/4.8.2/libgcc.a(_divsf3.o)
 .debug_abbrev  0x00002e97       0x14 /opt/xtensa-lx106-elf/bin/../lib/gcc/xtensa-lx106-elf/4.8.2/libgcc.a(_fixsfsi.o)
 .debug_abbrev  0x00002eab       0x14 /opt/xtensa-lx106-elf/bin/../lib/gcc/xtensa-lx106-elf/4.8.2/libgcc.a(_fixunssfsi.o)
 .debug_abbrev  0x00002ebf       0x14 /opt/xtensa-lx106-elf/bin/../lib/gcc/xtensa-lx106-elf/4.8.2/libgcc.a(_floatsisf.o)
 .debug_abbrev  0x00002ed3       0x14 /opt/xtensa-lx106-elf/bin/../lib/gcc/xtensa-lx106-elf/4.8.2/libgcc.a(_addsubdf3.o)
 .debug_abbrev  0x00002ee7       0x14 /opt/xtensa-lx106-elf/bin/../lib/gcc/xtensa-lx106-elf/4.8.2/libgcc.a(_muldf3.o)
 .debug_abbrev  0x00002efb       0x14 /opt/xtensa-lx106-elf/bin/../lib/gcc/xtensa-lx106-elf/4.8.2/libgcc.a(_divdf3.o)
 .debug_abbrev  0x00002f0f       0x14 /opt/xtensa-lx106-elf/bin/../lib/gcc/xtensa-lx106-elf/4.8.2/libgcc.a(_fixdfsi.o)
 .debug_abbrev  0x00002f23       0x14 /opt/xtensa-lx106-elf/bin/../lib/gcc/xtensa-lx106-elf/4.8.2/libgcc.a(_floatsidf.o)
 .debug_abbrev  0x00002f37       0x14 /opt/xtensa-lx106-elf/bin/../lib/gcc/xtensa-lx106-elf/4.8.2/libgcc.a(_truncdfsf2.o)
 .debug_abbrev  0x00002f4b       0x14 /opt/xtensa-lx106-elf/bin/../lib/gcc/xtensa-lx106-elf/4.8.2/libgcc.a(_extendsfdf2.o)
 .debug_abbrev  0x00002f5f       0xfd /opt/xtensa-lx106-elf/bin/../lib/gcc/xtensa-lx106-elf/4.8.2/libgcc.a(_muldi3.o)
 .debug_abbrev  0x0000305c       0x9b /opt/xtensa-lx106-elf/bin/../lib/gcc/xtensa-lx106-elf/4.8.2/libgcc.a(_popcountsi2.o)
 .debug_abbrev  0x000030f7      0x1a3 /opt/xtensa-lx106-elf/bin/../lib/gcc/xtensa-lx106-elf/4.8.2/libgcc.a(_divdi3.o)
 .debug_abbrev  0x0000329a      0x1a3 /opt/xtensa-lx106-elf/bin/../lib/gcc/xtensa-lx106-elf/4.8.2/libgcc.a(_umoddi3.o)
 .debug_abbrev  0x0000343d       0x14 /opt/xtensa-lx106-elf/bin/../lib/gcc/xtensa-lx106-elf/4.8.2/libgcc.a(_umulsidi3.o)
 .debug_abbrev  0x00003451       0x5d /opt/xtensa-lx106-elf/bin/../lib/gcc/xtensa-lx106-elf/4.8.2/libgcc.a(_popcount_tab.o)

.debug_loc      0x00000000     0xd16b
 .debug_loc     0x00000000       0x4a user/.output/eagle/debug/lib/libuser.a(user_main.o)
 .debug_loc     0x0000004a       0x84 user/.output/eagle/debug/lib/libuser.a(util-logtrace.o)
 .debug_loc     0x000000ce      0x8ce user/.output/eagle/debug/lib/libuser.a(util-terminal.o)
 .debug_loc     0x0000099c      0x20b user/.output/eagle/debug/lib/libuser.a(util-task.o)
 .debug_loc     0x00000ba7      0x1fc user/.output/eagle/debug/lib/libuser.a(task-af.o)
 .debug_loc     0x00000da3      0x9e0 user/.output/eagle/debug/lib/libuser.a(http-protocol.o)
 .debug_loc     0x00001783      0x13a user/.output/eagle/debug/lib/libuser.a(af-interface.o)
 .debug_loc     0x000018bd      0x128 user/.output/eagle/debug/lib/libuser.a(af-buffer.o)
 .debug_loc     0x000019e5      0x345 user/.output/eagle/debug/lib/libuser.a(tcp-socket.o)
 .debug_loc     0x00001d2a      0x331 ../../codec-mpeg/.output/eagle/debug/lib/libcodec-mpeg.a(codec-mpeg.o)
 .debug_loc     0x0000205b      0x48d ../../codec-mpeg/.output/eagle/debug/lib/libcodec-mpeg.a(frame.o)
 .debug_loc     0x000024e8     0x33c7 ../../codec-mpeg/.output/eagle/debug/lib/libcodec-mpeg.a(layer3.o)
 .debug_loc     0x000058af      0x175 ../../codec-mpeg/.output/eagle/debug/lib/libcodec-mpeg.a(stream.o)
 .debug_loc     0x00005a24     0x4935 ../../codec-mpeg/.output/eagle/debug/lib/libcodec-mpeg.a(synth_stereo.o)
 .debug_loc     0x0000a359      0x8f3 ../../codec-mpeg/.output/eagle/debug/lib/libcodec-mpeg.a(timer.o)
 .debug_loc     0x0000ac4c      0x1a3 ../../codec-mpeg/.output/eagle/debug/lib/libcodec-mpeg.a(align.o)
 .debug_loc     0x0000adef      0x241 ../../codec-mpeg/.output/eagle/debug/lib/libcodec-mpeg.a(bit.o)
 .debug_loc     0x0000b030      0x244 ../../adif-esp-i2s-dsm/.output/eagle/debug/lib/libadif-esp-i2s-dsm.a(adif-esp-i2s-dsm.o)
 .debug_loc     0x0000b274      0x25e driver/.output/eagle/debug/lib/libdriver.a(i2s_freertos.o)
 .debug_loc     0x0000b4d2      0x602 driver/.output/eagle/debug/lib/libdriver.a(uart.o)
 .debug_loc     0x0000bad4       0x50 /opt/xtensa-lx106-elf/bin/../lib/gcc/xtensa-lx106-elf/4.8.2/libgcc.a(_muldi3.o)
 .debug_loc     0x0000bb24       0x77 /opt/xtensa-lx106-elf/bin/../lib/gcc/xtensa-lx106-elf/4.8.2/libgcc.a(_popcountsi2.o)
 .debug_loc     0x0000bb9b      0xb8b /opt/xtensa-lx106-elf/bin/../lib/gcc/xtensa-lx106-elf/4.8.2/libgcc.a(_divdi3.o)
 .debug_loc     0x0000c726      0xa45 /opt/xtensa-lx106-elf/bin/../lib/gcc/xtensa-lx106-elf/4.8.2/libgcc.a(_umoddi3.o)

.debug_aranges  0x00000000      0x8f8
 .debug_aranges
                0x00000000       0x28 user/.output/eagle/debug/lib/libuser.a(user_main.o)
 .debug_aranges
                0x00000028       0x48 user/.output/eagle/debug/lib/libuser.a(util-logtrace.o)
 .debug_aranges
                0x00000070       0x40 user/.output/eagle/debug/lib/libuser.a(util-terminal.o)
 .debug_aranges
                0x000000b0       0x48 user/.output/eagle/debug/lib/libuser.a(util-task.o)
 .debug_aranges
                0x000000f8       0x48 user/.output/eagle/debug/lib/libuser.a(task-af.o)
 .debug_aranges
                0x00000140       0x68 user/.output/eagle/debug/lib/libuser.a(http-protocol.o)
 .debug_aranges
                0x000001a8       0x38 user/.output/eagle/debug/lib/libuser.a(af-interface.o)
 .debug_aranges
                0x000001e0       0x60 user/.output/eagle/debug/lib/libuser.a(af-buffer.o)
 .debug_aranges
                0x00000240       0x38 user/.output/eagle/debug/lib/libuser.a(tcp-socket.o)
 .debug_aranges
                0x00000278       0x38 ../../codec-mpeg/.output/eagle/debug/lib/libcodec-mpeg.a(codec-mpeg.o)
 .debug_aranges
                0x000002b0       0x50 ../../codec-mpeg/.output/eagle/debug/lib/libcodec-mpeg.a(frame.o)
 .debug_aranges
                0x00000300       0x60 ../../codec-mpeg/.output/eagle/debug/lib/libcodec-mpeg.a(layer3.o)
 .debug_aranges
                0x00000360       0x48 ../../codec-mpeg/.output/eagle/debug/lib/libcodec-mpeg.a(stream.o)
 .debug_aranges
                0x000003a8       0x50 ../../codec-mpeg/.output/eagle/debug/lib/libcodec-mpeg.a(synth_stereo.o)
 .debug_aranges
                0x000003f8       0x68 ../../codec-mpeg/.output/eagle/debug/lib/libcodec-mpeg.a(timer.o)
 .debug_aranges
                0x00000460       0x20 ../../codec-mpeg/.output/eagle/debug/lib/libcodec-mpeg.a(align.o)
 .debug_aranges
                0x00000480       0x20 ../../codec-mpeg/.output/eagle/debug/lib/libcodec-mpeg.a(bit.o)
 .debug_aranges
                0x000004a0       0x18 ../../codec-mpeg/.output/eagle/debug/lib/libcodec-mpeg.a(huffman.o)
 .debug_aranges
                0x000004b8       0x38 ../../adif-esp-i2s-dsm/.output/eagle/debug/lib/libadif-esp-i2s-dsm.a(adif-esp-i2s-dsm.o)
 .debug_aranges
                0x000004f0       0x38 driver/.output/eagle/debug/lib/libdriver.a(i2s_freertos.o)
 .debug_aranges
                0x00000528       0x98 driver/.output/eagle/debug/lib/libdriver.a(uart.o)
 .debug_aranges
                0x000005c0       0x20 /opt/xtensa-lx106-elf/bin/../lib/gcc/xtensa-lx106-elf/4.8.2/libgcc.a(_divsi3.o)
 .debug_aranges
                0x000005e0       0x20 /opt/xtensa-lx106-elf/bin/../lib/gcc/xtensa-lx106-elf/4.8.2/libgcc.a(_modsi3.o)
 .debug_aranges
                0x00000600       0x20 /opt/xtensa-lx106-elf/bin/../lib/gcc/xtensa-lx106-elf/4.8.2/libgcc.a(_udivsi3.o)
 .debug_aranges
                0x00000620       0x20 /opt/xtensa-lx106-elf/bin/../lib/gcc/xtensa-lx106-elf/4.8.2/libgcc.a(_umodsi3.o)
 .debug_aranges
                0x00000640       0x20 /opt/xtensa-lx106-elf/bin/../lib/gcc/xtensa-lx106-elf/4.8.2/libhal.a(clock.o)
 .debug_aranges
                0x00000660       0x20 /opt/xtensa-lx106-elf/bin/../lib/gcc/xtensa-lx106-elf/4.8.2/libhal.a(int_asm--set_intset.o)
 .debug_aranges
                0x00000680       0x20 /opt/xtensa-lx106-elf/bin/../lib/gcc/xtensa-lx106-elf/4.8.2/libgcc.a(_ashrdi3.o)
 .debug_aranges
                0x000006a0       0x20 /opt/xtensa-lx106-elf/bin/../lib/gcc/xtensa-lx106-elf/4.8.2/libgcc.a(_addsubsf3.o)
 .debug_aranges
                0x000006c0       0x20 /opt/xtensa-lx106-elf/bin/../lib/gcc/xtensa-lx106-elf/4.8.2/libgcc.a(_mulsf3.o)
 .debug_aranges
                0x000006e0       0x20 /opt/xtensa-lx106-elf/bin/../lib/gcc/xtensa-lx106-elf/4.8.2/libgcc.a(_divsf3.o)
 .debug_aranges
                0x00000700       0x20 /opt/xtensa-lx106-elf/bin/../lib/gcc/xtensa-lx106-elf/4.8.2/libgcc.a(_fixsfsi.o)
 .debug_aranges
                0x00000720       0x20 /opt/xtensa-lx106-elf/bin/../lib/gcc/xtensa-lx106-elf/4.8.2/libgcc.a(_fixunssfsi.o)
 .debug_aranges
                0x00000740       0x20 /opt/xtensa-lx106-elf/bin/../lib/gcc/xtensa-lx106-elf/4.8.2/libgcc.a(_floatsisf.o)
 .debug_aranges
                0x00000760       0x20 /opt/xtensa-lx106-elf/bin/../lib/gcc/xtensa-lx106-elf/4.8.2/libgcc.a(_addsubdf3.o)
 .debug_aranges
                0x00000780       0x20 /opt/xtensa-lx106-elf/bin/../lib/gcc/xtensa-lx106-elf/4.8.2/libgcc.a(_muldf3.o)
 .debug_aranges
                0x000007a0       0x20 /opt/xtensa-lx106-elf/bin/../lib/gcc/xtensa-lx106-elf/4.8.2/libgcc.a(_divdf3.o)
 .debug_aranges
                0x000007c0       0x20 /opt/xtensa-lx106-elf/bin/../lib/gcc/xtensa-lx106-elf/4.8.2/libgcc.a(_fixdfsi.o)
 .debug_aranges
                0x000007e0       0x20 /opt/xtensa-lx106-elf/bin/../lib/gcc/xtensa-lx106-elf/4.8.2/libgcc.a(_floatsidf.o)
 .debug_aranges
                0x00000800       0x20 /opt/xtensa-lx106-elf/bin/../lib/gcc/xtensa-lx106-elf/4.8.2/libgcc.a(_truncdfsf2.o)
 .debug_aranges
                0x00000820       0x20 /opt/xtensa-lx106-elf/bin/../lib/gcc/xtensa-lx106-elf/4.8.2/libgcc.a(_extendsfdf2.o)
 .debug_aranges
                0x00000840       0x20 /opt/xtensa-lx106-elf/bin/../lib/gcc/xtensa-lx106-elf/4.8.2/libgcc.a(_muldi3.o)
 .debug_aranges
                0x00000860       0x20 /opt/xtensa-lx106-elf/bin/../lib/gcc/xtensa-lx106-elf/4.8.2/libgcc.a(_popcountsi2.o)
 .debug_aranges
                0x00000880       0x20 /opt/xtensa-lx106-elf/bin/../lib/gcc/xtensa-lx106-elf/4.8.2/libgcc.a(_divdi3.o)
 .debug_aranges
                0x000008a0       0x20 /opt/xtensa-lx106-elf/bin/../lib/gcc/xtensa-lx106-elf/4.8.2/libgcc.a(_umoddi3.o)
 .debug_aranges
                0x000008c0       0x20 /opt/xtensa-lx106-elf/bin/../lib/gcc/xtensa-lx106-elf/4.8.2/libgcc.a(_umulsidi3.o)
 .debug_aranges
                0x000008e0       0x18 /opt/xtensa-lx106-elf/bin/../lib/gcc/xtensa-lx106-elf/4.8.2/libgcc.a(_popcount_tab.o)

.debug_ranges   0x00000000      0x980
 .debug_ranges  0x00000000       0x18 user/.output/eagle/debug/lib/libuser.a(user_main.o)
 .debug_ranges  0x00000018       0x38 user/.output/eagle/debug/lib/libuser.a(util-logtrace.o)
 .debug_ranges  0x00000050       0x30 user/.output/eagle/debug/lib/libuser.a(util-terminal.o)
 .debug_ranges  0x00000080       0x38 user/.output/eagle/debug/lib/libuser.a(util-task.o)
 .debug_ranges  0x000000b8       0x50 user/.output/eagle/debug/lib/libuser.a(task-af.o)
 .debug_ranges  0x00000108       0xc0 user/.output/eagle/debug/lib/libuser.a(http-protocol.o)
 .debug_ranges  0x000001c8       0x28 user/.output/eagle/debug/lib/libuser.a(af-interface.o)
 .debug_ranges  0x000001f0       0x50 user/.output/eagle/debug/lib/libuser.a(af-buffer.o)
 .debug_ranges  0x00000240       0x78 user/.output/eagle/debug/lib/libuser.a(tcp-socket.o)
 .debug_ranges  0x000002b8       0x40 ../../codec-mpeg/.output/eagle/debug/lib/libcodec-mpeg.a(codec-mpeg.o)
 .debug_ranges  0x000002f8       0x90 ../../codec-mpeg/.output/eagle/debug/lib/libcodec-mpeg.a(frame.o)
 .debug_ranges  0x00000388      0x308 ../../codec-mpeg/.output/eagle/debug/lib/libcodec-mpeg.a(layer3.o)
 .debug_ranges  0x00000690       0x38 ../../codec-mpeg/.output/eagle/debug/lib/libcodec-mpeg.a(stream.o)
 .debug_ranges  0x000006c8       0x40 ../../codec-mpeg/.output/eagle/debug/lib/libcodec-mpeg.a(synth_stereo.o)
 .debug_ranges  0x00000708       0x58 ../../codec-mpeg/.output/eagle/debug/lib/libcodec-mpeg.a(timer.o)
 .debug_ranges  0x00000760       0x20 ../../codec-mpeg/.output/eagle/debug/lib/libcodec-mpeg.a(bit.o)
 .debug_ranges  0x00000780       0x40 ../../adif-esp-i2s-dsm/.output/eagle/debug/lib/libadif-esp-i2s-dsm.a(adif-esp-i2s-dsm.o)
 .debug_ranges  0x000007c0       0x28 driver/.output/eagle/debug/lib/libdriver.a(i2s_freertos.o)
 .debug_ranges  0x000007e8       0xa0 driver/.output/eagle/debug/lib/libdriver.a(uart.o)
 .debug_ranges  0x00000888       0x60 /opt/xtensa-lx106-elf/bin/../lib/gcc/xtensa-lx106-elf/4.8.2/libgcc.a(_divdi3.o)
 .debug_ranges  0x000008e8       0x98 /opt/xtensa-lx106-elf/bin/../lib/gcc/xtensa-lx106-elf/4.8.2/libgcc.a(_umoddi3.o)

.debug_line     0x00000000     0xaeeb
 .debug_line    0x00000000      0x182 user/.output/eagle/debug/lib/libuser.a(user_main.o)
 .debug_line    0x00000182      0x16d user/.output/eagle/debug/lib/libuser.a(util-logtrace.o)
 .debug_line    0x000002ef      0x5b5 user/.output/eagle/debug/lib/libuser.a(util-terminal.o)
 .debug_line    0x000008a4      0x251 user/.output/eagle/debug/lib/libuser.a(util-task.o)
 .debug_line    0x00000af5      0x2a9 user/.output/eagle/debug/lib/libuser.a(task-af.o)
 .debug_line    0x00000d9e      0x698 user/.output/eagle/debug/lib/libuser.a(http-protocol.o)
 .debug_line    0x00001436      0x102 user/.output/eagle/debug/lib/libuser.a(af-interface.o)
 .debug_line    0x00001538      0x306 user/.output/eagle/debug/lib/libuser.a(af-buffer.o)
 .debug_line    0x0000183e      0x25b user/.output/eagle/debug/lib/libuser.a(tcp-socket.o)
 .debug_line    0x00001a99      0x2c4 ../../codec-mpeg/.output/eagle/debug/lib/libcodec-mpeg.a(codec-mpeg.o)
 .debug_line    0x00001d5d      0x62a ../../codec-mpeg/.output/eagle/debug/lib/libcodec-mpeg.a(frame.o)
 .debug_line    0x00002387     0x2450 ../../codec-mpeg/.output/eagle/debug/lib/libcodec-mpeg.a(layer3.o)
 .debug_line    0x000047d7      0x284 ../../codec-mpeg/.output/eagle/debug/lib/libcodec-mpeg.a(stream.o)
 .debug_line    0x00004a5b     0x1e6b ../../codec-mpeg/.output/eagle/debug/lib/libcodec-mpeg.a(synth_stereo.o)
 .debug_line    0x000068c6      0x4aa ../../codec-mpeg/.output/eagle/debug/lib/libcodec-mpeg.a(timer.o)
 .debug_line    0x00006d70       0xa8 ../../codec-mpeg/.output/eagle/debug/lib/libcodec-mpeg.a(align.o)
 .debug_line    0x00006e18      0x288 ../../codec-mpeg/.output/eagle/debug/lib/libcodec-mpeg.a(bit.o)
 .debug_line    0x000070a0       0x37 ../../codec-mpeg/.output/eagle/debug/lib/libcodec-mpeg.a(huffman.o)
 .debug_line    0x000070d7      0x172 ../../adif-esp-i2s-dsm/.output/eagle/debug/lib/libadif-esp-i2s-dsm.a(adif-esp-i2s-dsm.o)
 .debug_line    0x00007249      0x471 driver/.output/eagle/debug/lib/libdriver.a(i2s_freertos.o)
 .debug_line    0x000076ba      0x55c driver/.output/eagle/debug/lib/libdriver.a(uart.o)
 .debug_line    0x00007c16      0x14f /opt/xtensa-lx106-elf/bin/../lib/gcc/xtensa-lx106-elf/4.8.2/libgcc.a(_divsi3.o)
 .debug_line    0x00007d65      0x10d /opt/xtensa-lx106-elf/bin/../lib/gcc/xtensa-lx106-elf/4.8.2/libgcc.a(_modsi3.o)
 .debug_line    0x00007e72      0x11f /opt/xtensa-lx106-elf/bin/../lib/gcc/xtensa-lx106-elf/4.8.2/libgcc.a(_udivsi3.o)
 .debug_line    0x00007f91       0xef /opt/xtensa-lx106-elf/bin/../lib/gcc/xtensa-lx106-elf/4.8.2/libgcc.a(_umodsi3.o)
 .debug_line    0x00008080       0xbc /opt/xtensa-lx106-elf/bin/../lib/gcc/xtensa-lx106-elf/4.8.2/libhal.a(clock.o)
 .debug_line    0x0000813c       0x89 /opt/xtensa-lx106-elf/bin/../lib/gcc/xtensa-lx106-elf/4.8.2/libhal.a(int_asm--set_intset.o)
 .debug_line    0x000081c5       0xad /opt/xtensa-lx106-elf/bin/../lib/gcc/xtensa-lx106-elf/4.8.2/libgcc.a(_ashrdi3.o)
 .debug_line    0x00008272      0x4b0 /opt/xtensa-lx106-elf/bin/../lib/gcc/xtensa-lx106-elf/4.8.2/libgcc.a(_addsubsf3.o)
 .debug_line    0x00008722      0x372 /opt/xtensa-lx106-elf/bin/../lib/gcc/xtensa-lx106-elf/4.8.2/libgcc.a(_mulsf3.o)
 .debug_line    0x00008a94      0x30c /opt/xtensa-lx106-elf/bin/../lib/gcc/xtensa-lx106-elf/4.8.2/libgcc.a(_divsf3.o)
 .debug_line    0x00008da0      0x108 /opt/xtensa-lx106-elf/bin/../lib/gcc/xtensa-lx106-elf/4.8.2/libgcc.a(_fixsfsi.o)
 .debug_line    0x00008ea8      0x138 /opt/xtensa-lx106-elf/bin/../lib/gcc/xtensa-lx106-elf/4.8.2/libgcc.a(_fixunssfsi.o)
 .debug_line    0x00008fe0      0x114 /opt/xtensa-lx106-elf/bin/../lib/gcc/xtensa-lx106-elf/4.8.2/libgcc.a(_floatsisf.o)
 .debug_line    0x000090f4      0x6ae /opt/xtensa-lx106-elf/bin/../lib/gcc/xtensa-lx106-elf/4.8.2/libgcc.a(_addsubdf3.o)
 .debug_line    0x000097a2      0x620 /opt/xtensa-lx106-elf/bin/../lib/gcc/xtensa-lx106-elf/4.8.2/libgcc.a(_muldf3.o)
 .debug_line    0x00009dc2      0x4c8 /opt/xtensa-lx106-elf/bin/../lib/gcc/xtensa-lx106-elf/4.8.2/libgcc.a(_divdf3.o)
 .debug_line    0x0000a28a      0x11a /opt/xtensa-lx106-elf/bin/../lib/gcc/xtensa-lx106-elf/4.8.2/libgcc.a(_fixdfsi.o)
 .debug_line    0x0000a3a4       0xf6 /opt/xtensa-lx106-elf/bin/../lib/gcc/xtensa-lx106-elf/4.8.2/libgcc.a(_floatsidf.o)
 .debug_line    0x0000a49a      0x1c8 /opt/xtensa-lx106-elf/bin/../lib/gcc/xtensa-lx106-elf/4.8.2/libgcc.a(_truncdfsf2.o)
 .debug_line    0x0000a662      0x14a /opt/xtensa-lx106-elf/bin/../lib/gcc/xtensa-lx106-elf/4.8.2/libgcc.a(_extendsfdf2.o)
 .debug_line    0x0000a7ac       0xbe /opt/xtensa-lx106-elf/bin/../lib/gcc/xtensa-lx106-elf/4.8.2/libgcc.a(_muldi3.o)
 .debug_line    0x0000a86a       0xba /opt/xtensa-lx106-elf/bin/../lib/gcc/xtensa-lx106-elf/4.8.2/libgcc.a(_popcountsi2.o)
 .debug_line    0x0000a924      0x205 /opt/xtensa-lx106-elf/bin/../lib/gcc/xtensa-lx106-elf/4.8.2/libgcc.a(_divdi3.o)
 .debug_line    0x0000ab29      0x228 /opt/xtensa-lx106-elf/bin/../lib/gcc/xtensa-lx106-elf/4.8.2/libgcc.a(_umoddi3.o)
 .debug_line    0x0000ad51      0x12b /opt/xtensa-lx106-elf/bin/../lib/gcc/xtensa-lx106-elf/4.8.2/libgcc.a(_umulsidi3.o)
 .debug_line    0x0000ae7c       0x6f /opt/xtensa-lx106-elf/bin/../lib/gcc/xtensa-lx106-elf/4.8.2/libgcc.a(_popcount_tab.o)

.debug_str      0x00000000     0x2e0e
 .debug_str     0x00000000      0x2ac user/.output/eagle/debug/lib/libuser.a(user_main.o)
                                0x30f (size before relaxing)
 .debug_str     0x000002ac      0x15b user/.output/eagle/debug/lib/libuser.a(util-logtrace.o)
                                0x2c3 (size before relaxing)
 .debug_str     0x00000407       0x63 user/.output/eagle/debug/lib/libuser.a(util-terminal.o)
                                0x1f3 (size before relaxing)
 .debug_str     0x0000046a      0x261 user/.output/eagle/debug/lib/libuser.a(util-task.o)
                                0x40f (size before relaxing)
 .debug_str     0x000006cb      0x255 user/.output/eagle/debug/lib/libuser.a(task-af.o)
                                0x533 (size before relaxing)
 .debug_str     0x00000920      0x1ec user/.output/eagle/debug/lib/libuser.a(http-protocol.o)
                                0x4cd (size before relaxing)
 .debug_str     0x00000b0c       0x63 user/.output/eagle/debug/lib/libuser.a(af-interface.o)
                                0x1fb (size before relaxing)
 .debug_str     0x00000b6f      0x112 user/.output/eagle/debug/lib/libuser.a(af-buffer.o)
                                0x310 (size before relaxing)
 .debug_str     0x00000c81      0x1c6 user/.output/eagle/debug/lib/libuser.a(tcp-socket.o)
                                0x3f4 (size before relaxing)
 .debug_str     0x00000e47      0x598 ../../codec-mpeg/.output/eagle/debug/lib/libcodec-mpeg.a(codec-mpeg.o)
                                0x8c1 (size before relaxing)
 .debug_str     0x000013df      0x258 ../../codec-mpeg/.output/eagle/debug/lib/libcodec-mpeg.a(frame.o)
                                0x7c0 (size before relaxing)
 .debug_str     0x00001637      0x643 ../../codec-mpeg/.output/eagle/debug/lib/libcodec-mpeg.a(layer3.o)
                                0xd3a (size before relaxing)
 .debug_str     0x00001c7a       0x2b ../../codec-mpeg/.output/eagle/debug/lib/libcodec-mpeg.a(stream.o)
                                0x421 (size before relaxing)
 .debug_str     0x00001ca5      0x1e7 ../../codec-mpeg/.output/eagle/debug/lib/libcodec-mpeg.a(synth_stereo.o)
                                0x663 (size before relaxing)
 .debug_str     0x00001e8c      0x347 ../../codec-mpeg/.output/eagle/debug/lib/libcodec-mpeg.a(timer.o)
                                0x4c1 (size before relaxing)
 .debug_str     0x000021d3       0x12 ../../codec-mpeg/.output/eagle/debug/lib/libcodec-mpeg.a(align.o)
                                0x12f (size before relaxing)
 .debug_str     0x000021e5       0x10 ../../codec-mpeg/.output/eagle/debug/lib/libcodec-mpeg.a(bit.o)
                                0x1b4 (size before relaxing)
 .debug_str     0x000021f5       0xb3 ../../codec-mpeg/.output/eagle/debug/lib/libcodec-mpeg.a(huffman.o)
                                0x23b (size before relaxing)
 .debug_str     0x000022a8       0xd4 ../../adif-esp-i2s-dsm/.output/eagle/debug/lib/libadif-esp-i2s-dsm.a(adif-esp-i2s-dsm.o)
                                0x257 (size before relaxing)
 .debug_str     0x0000237c      0x1fc driver/.output/eagle/debug/lib/libdriver.a(i2s_freertos.o)
                                0x38d (size before relaxing)
 .debug_str     0x00002578      0x63f driver/.output/eagle/debug/lib/libdriver.a(uart.o)
                                0x7e7 (size before relaxing)
 .debug_str     0x00002bb7      0x168 /opt/xtensa-lx106-elf/bin/../lib/gcc/xtensa-lx106-elf/4.8.2/libgcc.a(_muldi3.o)
                                0x1ec (size before relaxing)
 .debug_str     0x00002d1f       0x25 /opt/xtensa-lx106-elf/bin/../lib/gcc/xtensa-lx106-elf/4.8.2/libgcc.a(_popcountsi2.o)
                                0x1cd (size before relaxing)
 .debug_str     0x00002d44       0xc0 /opt/xtensa-lx106-elf/bin/../lib/gcc/xtensa-lx106-elf/4.8.2/libgcc.a(_divdi3.o)
                                0x242 (size before relaxing)
 .debug_str     0x00002e04        0xa /opt/xtensa-lx106-elf/bin/../lib/gcc/xtensa-lx106-elf/4.8.2/libgcc.a(_umoddi3.o)
                                0x243 (size before relaxing)
 .debug_str     0x00000000      0x1b7 /opt/xtensa-lx106-elf/bin/../lib/gcc/xtensa-lx106-elf/4.8.2/libgcc.a(_popcount_tab.o)
